Certificate:
    Data:
        Version: 3 (0x2)
        Serial Number: 268435675 (0x100000db)
    Signature Algorithm: sha256WithRSAEncryption
        Issuer: C=DE, ST=Hessen, O=privacyidea, CN=CA001
        Validity
            Not Before: Aug 30 16:01:19 2018 GMT
            Not After : Aug 30 16:01:19 2019 GMT
        Subject: C=DE, ST=Hessen, O=privacyidea, CN=requester.localdomain
        Subject Public Key Info:
            Public Key Algorithm: rsaEncryption
                Public-Key: (2048 bit)
                Modulus:
                    00:cd:be:14:4f:fa:ce:01:3f:42:22:1b:1d:9c:af:
                    dd:92:d2:7f:db:6c:b7:3e:39:43:43:6b:13:03:f1:
                    05:f4:07:74:bc:76:69:28:0b:af:19:8e:d7:fc:e3:
                    cd:c6:58:f2:ca:7f:08:6d:53:fc:07:02:44:24:c6:
                    b4:34:4c:8c:04:fe:33:0e:40:e2:20:ba:02:73:5a:
                    f7:f5:4f:63:6e:cc:c6:b6:df:54:1d:37:39:7d:51:
                    36:26:5f:bd:dc:3f:a8:8b:6b:a2:ae:b6:9d:d6:21:
                    e7:df:41:b8:7a:28:2a:68:48:ca:a8:2d:ed:e1:e9:
                    46:5e:5a:72:6d:b4:84:38:87:91:fd:94:11:0b:28:
                    84:c6:c2:2f:2a:fb:01:f9:36:7a:09:75:d1:33:88:
                    3c:73:41:5b:c8:bf:94:89:70:a1:f0:c0:b9:2e:50:
                    53:1e:b1:17:64:69:f4:2d:81:e0:a9:0d:0e:32:e9:
                    ba:55:8a:85:f1:1b:6f:49:79:b4:7f:88:c3:0d:3e:
                    54:88:9b:3d:1f:38:8c:04:f3:ee:6a:63:2b:f5:c6:
                    db:b4:83:aa:c4:78:41:3a:7d:4b:e1:c8:3e:71:ca:
                    1b:61:59:ea:c6:c4:ca:32:5e:c9:e9:bf:12:29:e6:
                    c6:c3:63:fe:a0:55:da:7a:f1:60:98:4d:26:ed:fa:
                    70:2d
                Exponent: 65537 (0x10001)
        X509v3 extensions:
            X509v3 Key Usage: 
                Digital Signature, Key Encipherment
            X509v3 Basic Constraints: 
                CA:FALSE
            Netscape Cert Type: 
                SSL Server
            Netscape Comment: 
                OpenSSL Generated Server Certificate
            X509v3 Subject Key Identifier: 
                53:3F:ED:5D:09:07:B3:65:7B:AB:45:C9:24:5B:09:77:80:0A:96:ED
            X509v3 Authority Key Identifier: 
                keyid:F4:A7:C0:CC:91:46:AF:64:F3:91:F2:27:F8:C8:B2:6F:8A:87:32:73
                DirName:/C=DE/ST=Hessen/O=privacyidea/CN=CA001
                serial:FB:C8:EB:AC:83:CD:12:07

            X509v3 Extended Key Usage: 
                TLS Web Server Authentication
    Signature Algorithm: sha256WithRSAEncryption
         32:91:d9:f5:5d:92:a2:45:f3:48:fa:00:49:3d:84:01:99:38:
         c8:70:0d:8b:c4:cd:e6:6e:89:88:bf:9f:62:3d:7f:dc:c0:42:
         4d:3b:ec:d0:3a:34:7b:64:dc:a6:59:6c:a6:cf:00:9f:8b:92:
         17:f2:bb:26:33:16:9e:f7:97:13:4d:36:a4:f9:94:e8:b1:3f:
         d5:e7:c5:18:85:c6:fe:f4:2c:c1:a9:7e:7d:c8:ac:18:36:e3:
         2f:2f:93:62:52:1a:6e:92:b6:87:f6:9a:47:63:0b:0a:bc:2b:
         b6:d7:85:79:2b:1f:83:62:6b:a6:74:6c:7b:cc:22:bf:a5:a8:
         77:ec:c7:ac:0d:c2:c7:25:69:65:fe:67:ff:89:23:d3:b1:ee:
         9e:1b:ce:78:66:4c:62:13:57:fc:0d:bf:d4:95:da:50:1c:59:
         23:61:3c:82:38:ae:8a:aa:01:3e:d7:15:af:16:66:aa:14:ad:
         36:1b:36:7c:b2:61:bd:24:3b:93:a9:35:1c:7a:0c:26:c3:60:
         70:16:0e:be:65:58:9d:20:52:d7:d3:da:f9:e0:b2:0d:14:7f:
         40:66:29:26:4d:80:af:2f:36:4d:25:33:c8:b8:f7:15:fa:be:
         d5:d7:15:b8:b7:45:dd:0c:af:be:ca:eb:ca:1d:6b:ae:e9:e0:
         5a:eb:c6:16
-----BEGIN CERTIFICATE-----
MIIEJjCCAw6gAwIBAgIEEAAA2zANBgkqhkiG9w0BAQsFADBEMQswCQYDVQQGEwJE
RTEPMA0GA1UECAwGSGVzc2VuMRQwEgYDVQQKDAtwcml2YWN5aWRlYTEOMAwGA1UE
AwwFQ0EwMDEwHhcNMTgwODMwMTYwMTE5WhcNMTkwODMwMTYwMTE5WjBUMQswCQYD
VQQGEwJERTEPMA0GA1UECAwGSGVzc2VuMRQwEgYDVQQKDAtwcml2YWN5aWRlYTEe
MBwGA1UEAwwVcmVxdWVzdGVyLmxvY2FsZG9tYWluMIIBIjANBgkqhkiG9w0BAQEF
AAOCAQ8AMIIBCgKCAQEAzb4UT/rOAT9CIhsdnK/dktJ/22y3PjlDQ2sTA/EF9Ad0
vHZpKAuvGY7X/OPNxljyyn8IbVP8BwJEJMa0NEyMBP4zDkDiILoCc1r39U9jbszG
tt9UHTc5fVE2Jl+93D+oi2uirrad1iHn30G4eigqaEjKqC3t4elGXlpybbSEOIeR
/ZQRCyiExsIvKvsB+TZ6CXXRM4g8c0FbyL+UiXCh8MC5LlBTHrEXZGn0LYHgqQ0O
Mum6VYqF8RtvSXm0f4jDDT5UiJs9HziMBPPuamMr9cbbtIOqxHhBOn1L4cg+ccob
YVnqxsTKMl7J6b8SKebGw2P+oFXaevFgmE0m7fpwLQIDAQABo4IBDjCCAQowCwYD
VR0PBAQDAgWgMAkGA1UdEwQCMAAwEQYJYIZIAYb4QgEBBAQDAgZAMDMGCWCGSAGG
+EIBDQQmFiRPcGVuU1NMIEdlbmVyYXRlZCBTZXJ2ZXIgQ2VydGlmaWNhdGUwHQYD
VR0OBBYEFFM/7V0JB7Nle6tFySRbCXeACpbtMHQGA1UdIwRtMGuAFPSnwMyRRq9k
85HyJ/jIsm+KhzJzoUikRjBEMQswCQYDVQQGEwJERTEPMA0GA1UECAwGSGVzc2Vu
MRQwEgYDVQQKDAtwcml2YWN5aWRlYTEOMAwGA1UEAwwFQ0EwMDGCCQD7yOusg80S
BzATBgNVHSUEDDAKBggrBgEFBQcDATANBgkqhkiG9w0BAQsFAAOCAQEAMpHZ9V2S
okXzSPoAST2EAZk4yHANi8TN5m6JiL+fYj1/3MBCTTvs0Do0e2Tcpllsps8An4uS
F/K7JjMWnveXE002pPmU6LE/1efFGIXG/vQswal+fcisGDbjLy+TYlIabpK2h/aa
R2MLCrwrtteFeSsfg2JrpnRse8wiv6Wod+zHrA3CxyVpZf5n/4kj07HunhvOeGZM
YhNX/A2/1JXaUBxZI2E8gjiuiqoBPtcVrxZmqhStNhs2fLJhvSQ7k6k1HHoMJsNg
cBYOvmVYnSBS19Pa+eCyDRR/QGYpJk2Ary82TSUzyLj3Ffq+1dcVuLdF3Qyvvsrr
yh1rrungWuvGFg==
-----END CERTIFICATE-----
