Certificate:
    Data:
        Version: 3 (0x2)
        Serial Number: 268435702 (0x100000f6)
    Signature Algorithm: sha1WithRSAEncryption
        Issuer: C=DE, ST=Hessen, O=privacyidea, CN=CA001
        Validity
            Not Before: Feb 23 15:35:40 2017 GMT
            Not After : Feb 23 15:35:40 2018 GMT
        Subject: CN=Steve Test/emailAddress=steve@openssl.org
        Subject Public Key Info:
            Public Key Algorithm: rsaEncryption
                Public-Key: (2048 bit)
                Modulus:
                    00:d2:81:89:20:51:48:0f:73:f4:11:32:24:d5:1f:
                    1c:fd:5c:f5:b6:e6:c5:f0:52:81:dc:d2:af:66:4a:
                    7c:93:31:61:5c:af:d1:6d:06:70:03:60:7c:72:0c:
                    88:dd:49:cd:9e:02:6c:d2:5a:d7:53:0f:f3:da:be:
                    69:64:b5:0f:0c:00:e3:b3:50:47:a3:b3:9b:ba:13:
                    50:d6:58:5a:4b:ab:39:e0:11:ca:0a:27:67:03:78:
                    22:66:6d:92:1e:1b:5c:49:ae:e6:6b:d1:8e:3b:9d:
                    06:d3:c6:ac:4d:53:43:10:ab:e8:96:c1:87:82:97:
                    99:8f:20:d3:99:12:37:31:84:e1:8a:ff:29:03:5f:
                    22:90:3e:7f:9b:e0:20:c1:ad:dc:ae:4c:39:1a:31:
                    96:17:02:8c:b2:d9:b4:0d:20:12:9b:7d:86:54:fd:
                    33:fd:c1:2a:62:46:f8:60:96:cf:6e:01:6f:22:df:
                    13:47:e7:97:ec:05:72:23:a3:62:f8:fa:ef:ac:9c:
                    72:f0:37:cb:2f:37:cf:90:a8:27:51:86:c6:d7:78:
                    08:8f:7e:25:a2:15:70:a2:fb:1c:b6:15:5e:a0:97:
                    8b:81:4c:09:28:8a:27:3b:94:bc:71:db:5b:71:37:
                    9a:2b:16:e0:6f:b5:c9:f5:4b:4f:20:ba:65:cf:af:
                    ad:ad
                Exponent: 65537 (0x10001)
        X509v3 extensions:
            X509v3 Key Usage: 
                Digital Signature, Key Encipherment
            X509v3 Basic Constraints: 
                CA:FALSE
            Netscape Cert Type: 
                SSL Server
            Netscape Comment: 
                OpenSSL Generated Server Certificate
            X509v3 Subject Key Identifier: 
                E5:25:6D:3E:AF:0D:DD:3F:4C:F2:45:19:39:D5:14:DB:7E:9C:C0:AD
            X509v3 Authority Key Identifier: 
                keyid:F4:A7:C0:CC:91:46:AF:64:F3:91:F2:27:F8:C8:B2:6F:8A:87:32:73
                DirName:/C=DE/ST=Hessen/O=privacyidea/CN=CA001
                serial:FB:C8:EB:AC:83:CD:12:07

            X509v3 Extended Key Usage: 
                TLS Web Server Authentication
    Signature Algorithm: sha1WithRSAEncryption
         59:ad:67:5f:2c:5d:aa:86:39:dd:4f:42:87:0e:f9:56:bc:fd:
         8b:b7:0d:ee:71:4f:11:8c:d3:20:d8:19:00:f2:59:3c:6a:19:
         5c:58:0e:d1:a3:cd:14:9b:68:21:75:3c:62:61:e3:65:40:9f:
         4d:48:ee:fa:2f:82:76:58:1e:04:b1:b6:57:b8:99:15:74:48:
         95:6b:6e:5b:cc:c0:05:af:34:30:c9:96:ca:f5:2a:c5:f7:7c:
         ab:ec:b7:23:18:7b:73:77:f2:3f:4c:eb:de:b0:35:6c:43:d7:
         2b:86:49:57:12:9e:62:b9:6f:3c:b4:3a:45:57:df:b7:88:56:
         7d:bb:e5:e3:77:05:4b:53:fa:3a:e4:20:66:f8:1a:96:c5:b6:
         2d:54:be:35:e0:71:75:33:e7:89:85:6d:2b:2e:58:a4:bf:6d:
         e7:01:73:23:b4:24:d9:d0:ab:41:52:67:01:e9:d7:6c:44:8d:
         41:ef:e9:51:56:45:9d:c9:66:0d:cd:05:7e:2b:b6:b8:75:0b:
         40:79:61:2d:87:c8:eb:f6:90:68:7f:ba:c3:db:8a:20:91:96:
         d5:f2:90:91:56:0c:0d:4d:f7:cd:cd:a9:4e:74:8a:de:3e:56:
         1c:a5:64:97:66:38:5b:da:50:6c:3e:81:0e:c9:f5:fd:65:ae:
         a4:13:cd:c2
-----BEGIN CERTIFICATE-----
MIIECTCCAvGgAwIBAgIEEAAA9jANBgkqhkiG9w0BAQUFADBEMQswCQYDVQQGEwJE
RTEPMA0GA1UECAwGSGVzc2VuMRQwEgYDVQQKDAtwcml2YWN5aWRlYTEOMAwGA1UE
AwwFQ0EwMDEwHhcNMTcwMjIzMTUzNTQwWhcNMTgwMjIzMTUzNTQwWjA3MRMwEQYD
VQQDDApTdGV2ZSBUZXN0MSAwHgYJKoZIhvcNAQkBFhFzdGV2ZUBvcGVuc3NsLm9y
ZzCCASIwDQYJKoZIhvcNAQEBBQADggEPADCCAQoCggEBANKBiSBRSA9z9BEyJNUf
HP1c9bbmxfBSgdzSr2ZKfJMxYVyv0W0GcANgfHIMiN1JzZ4CbNJa11MP89q+aWS1
DwwA47NQR6Ozm7oTUNZYWkurOeARygonZwN4ImZtkh4bXEmu5mvRjjudBtPGrE1T
QxCr6JbBh4KXmY8g05kSNzGE4Yr/KQNfIpA+f5vgIMGt3K5MORoxlhcCjLLZtA0g
Ept9hlT9M/3BKmJG+GCWz24BbyLfE0fnl+wFciOjYvj676yccvA3yy83z5CoJ1GG
xtd4CI9+JaIVcKL7HLYVXqCXi4FMCSiKJzuUvHHbW3E3misW4G+1yfVLTyC6Zc+v
ra0CAwEAAaOCAQ4wggEKMAsGA1UdDwQEAwIFoDAJBgNVHRMEAjAAMBEGCWCGSAGG
+EIBAQQEAwIGQDAzBglghkgBhvhCAQ0EJhYkT3BlblNTTCBHZW5lcmF0ZWQgU2Vy
dmVyIENlcnRpZmljYXRlMB0GA1UdDgQWBBTlJW0+rw3dP0zyRRk51RTbfpzArTB0
BgNVHSMEbTBrgBT0p8DMkUavZPOR8if4yLJviocyc6FIpEYwRDELMAkGA1UEBhMC
REUxDzANBgNVBAgMBkhlc3NlbjEUMBIGA1UECgwLcHJpdmFjeWlkZWExDjAMBgNV
BAMMBUNBMDAxggkA+8jrrIPNEgcwEwYDVR0lBAwwCgYIKwYBBQUHAwEwDQYJKoZI
hvcNAQEFBQADggEBAFmtZ18sXaqGOd1PQocO+Va8/Yu3De5xTxGM0yDYGQDyWTxq
GVxYDtGjzRSbaCF1PGJh42VAn01I7vovgnZYHgSxtle4mRV0SJVrblvMwAWvNDDJ
lsr1KsX3fKvstyMYe3N38j9M696wNWxD1yuGSVcSnmK5bzy0OkVX37eIVn275eN3
BUtT+jrkIGb4GpbFti1UvjXgcXUz54mFbSsuWKS/becBcyO0JNnQq0FSZwHp12xE
jUHv6VFWRZ3JZg3NBX4rtrh1C0B5YS2HyOv2kGh/usPbiiCRltXykJFWDA1N983N
qU50it4+VhylZJdmOFvaUGw+gQ7J9f1lrqQTzcI=
-----END CERTIFICATE-----
