Certificate:
    Data:
        Version: 3 (0x2)
        Serial Number: 268435724 (0x1000010c)
    Signature Algorithm: sha1WithRSAEncryption
        Issuer: C=DE, ST=Hessen, O=privacyidea, CN=CA001
        Validity
            Not Before: Apr 26 15:35:17 2016 GMT
            Not After : Apr 26 15:35:17 2017 GMT
        Subject: OU=local, CN=corny/emailAddress=corny@cornelinux.de
        Subject Public Key Info:
            Public Key Algorithm: rsaEncryption
                Public-Key: (2048 bit)
                Modulus:
                    00:cb:27:54:64:f4:b9:15:d3:95:bf:21:e3:b0:d5:
                    7d:75:4e:59:17:c3:a2:60:b7:e9:ce:a3:c4:31:53:
                    f3:ac:cf:00:21:fa:59:df:a4:da:64:ad:92:cc:09:
                    7a:c4:9b:9c:07:61:ea:ef:4f:6d:c5:7e:dc:53:b8:
                    4b:e5:25:e3:fa:7b:b4:3a:cc:f3:86:26:f5:0b:69:
                    97:b2:70:39:2c:1d:9d:cc:de:b0:22:cc:0f:83:06:
                    c1:3f:26:f4:d6:54:1a:b6:74:61:af:03:90:16:b5:
                    59:d9:a4:37:83:e9:fc:02:71:1d:b8:37:14:4c:3f:
                    d3:82:de:41:f9:48:b9:44:7e:91:7f:d8:59:21:16:
                    17:88:23:da:e1:89:fe:9b:f5:9b:33:7d:0a:03:bb:
                    64:4c:cb:67:e6:70:42:85:73:b1:48:46:7c:85:14:
                    3d:8f:ef:ce:6a:39:a8:5d:ff:7e:9b:38:25:87:ed:
                    a3:1a:f9:52:d0:91:da:be:9a:07:63:09:ce:ac:2e:
                    17:88:93:43:8b:2a:7b:86:65:70:40:f4:e7:22:51:
                    22:a8:9c:6c:2f:e3:72:15:75:c5:2c:2e:3d:cd:6d:
                    85:ea:2a:b7:91:e8:47:38:d0:8e:be:35:3a:69:d3:
                    5d:4c:a7:d9:68:c2:3a:57:83:52:46:68:78:b2:e2:
                    01:45
                Exponent: 65537 (0x10001)
        X509v3 extensions:
            X509v3 Key Usage: 
                Digital Signature, Key Encipherment
            X509v3 Basic Constraints: 
                CA:FALSE
            Netscape Cert Type: 
                SSL Server
            Netscape Comment: 
                OpenSSL Generated Server Certificate
            X509v3 Subject Key Identifier: 
                E1:96:05:F7:4C:26:88:79:5A:ED:DC:8A:E3:D6:1C:1B:31:8F:D5:58
            X509v3 Authority Key Identifier: 
                keyid:F4:A7:C0:CC:91:46:AF:64:F3:91:F2:27:F8:C8:B2:6F:8A:87:32:73
                DirName:/C=DE/ST=Hessen/O=privacyidea/CN=CA001
                serial:FB:C8:EB:AC:83:CD:12:07

            X509v3 Extended Key Usage: 
                TLS Web Server Authentication
    Signature Algorithm: sha1WithRSAEncryption
         90:b1:50:a7:f2:09:62:23:5a:be:1a:30:66:06:5c:5d:12:c7:
         0c:3b:eb:19:16:c1:19:f5:23:56:61:bb:8a:5c:5c:10:c1:ca:
         df:3a:2f:33:c1:ce:d2:9e:87:7a:5b:26:b4:64:12:0c:8f:52:
         de:12:e0:1b:d4:76:9c:5a:d6:3e:69:ba:f2:60:60:b4:ba:9c:
         13:08:d2:18:e9:68:a8:56:d6:e7:b5:3f:81:ed:64:31:d4:fb:
         3c:c6:33:c1:fe:16:ba:b3:74:3d:2c:75:2a:3f:70:bd:02:52:
         74:7d:a5:c7:09:4d:66:23:e3:cb:4d:15:eb:af:e6:aa:3f:0b:
         41:a7:50:8b:b5:80:52:68:27:83:69:06:6e:ef:38:55:bf:4e:
         2f:09:ed:3d:36:6d:de:5c:e8:c9:88:17:84:8a:5b:e5:e4:f4:
         76:2e:d5:48:92:42:b5:3d:c7:9d:1d:d5:25:c4:ac:b1:69:7f:
         36:b1:41:93:29:6c:6c:7b:38:5f:fd:dc:f4:32:7e:cb:a4:9a:
         ed:9f:15:2c:15:c6:a9:65:ac:ef:f1:97:31:47:ef:75:6b:40:
         b2:a4:d6:5c:18:bb:f4:e2:93:af:2e:4a:58:40:64:01:38:bf:
         48:40:49:8e:02:39:7a:17:d4:c5:81:23:1e:5d:ec:d0:56:a3:
         27:56:cb:37
-----BEGIN CERTIFICATE-----
MIIEFjCCAv6gAwIBAgIEEAABDDANBgkqhkiG9w0BAQUFADBEMQswCQYDVQQGEwJE
RTEPMA0GA1UECAwGSGVzc2VuMRQwEgYDVQQKDAtwcml2YWN5aWRlYTEOMAwGA1UE
AwwFQ0EwMDEwHhcNMTYwNDI2MTUzNTE3WhcNMTcwNDI2MTUzNTE3WjBEMQ4wDAYD
VQQLEwVsb2NhbDEOMAwGA1UEAxMFY29ybnkxIjAgBgkqhkiG9w0BCQEWE2Nvcm55
QGNvcm5lbGludXguZGUwggEiMA0GCSqGSIb3DQEBAQUAA4IBDwAwggEKAoIBAQDL
J1Rk9LkV05W/IeOw1X11TlkXw6Jgt+nOo8QxU/OszwAh+lnfpNpkrZLMCXrEm5wH
YervT23FftxTuEvlJeP6e7Q6zPOGJvULaZeycDksHZ3M3rAizA+DBsE/JvTWVBq2
dGGvA5AWtVnZpDeD6fwCcR24NxRMP9OC3kH5SLlEfpF/2FkhFheII9rhif6b9Zsz
fQoDu2RMy2fmcEKFc7FIRnyFFD2P785qOahd/36bOCWH7aMa+VLQkdq+mgdjCc6s
LheIk0OLKnuGZXBA9OciUSKonGwv43IVdcUsLj3NbYXqKreR6Ec40I6+NTpp011M
p9lowjpXg1JGaHiy4gFFAgMBAAGjggEOMIIBCjALBgNVHQ8EBAMCBaAwCQYDVR0T
BAIwADARBglghkgBhvhCAQEEBAMCBkAwMwYJYIZIAYb4QgENBCYWJE9wZW5TU0wg
R2VuZXJhdGVkIFNlcnZlciBDZXJ0aWZpY2F0ZTAdBgNVHQ4EFgQU4ZYF90wmiHla
7dyK49YcGzGP1VgwdAYDVR0jBG0wa4AU9KfAzJFGr2TzkfIn+Miyb4qHMnOhSKRG
MEQxCzAJBgNVBAYTAkRFMQ8wDQYDVQQIDAZIZXNzZW4xFDASBgNVBAoMC3ByaXZh
Y3lpZGVhMQ4wDAYDVQQDDAVDQTAwMYIJAPvI66yDzRIHMBMGA1UdJQQMMAoGCCsG
AQUFBwMBMA0GCSqGSIb3DQEBBQUAA4IBAQCQsVCn8gliI1q+GjBmBlxdEscMO+sZ
FsEZ9SNWYbuKXFwQwcrfOi8zwc7Snod6Wya0ZBIMj1LeEuAb1HacWtY+abryYGC0
upwTCNIY6WioVtbntT+B7WQx1Ps8xjPB/ha6s3Q9LHUqP3C9AlJ0faXHCU1mI+PL
TRXrr+aqPwtBp1CLtYBSaCeDaQZu7zhVv04vCe09Nm3eXOjJiBeEilvl5PR2LtVI
kkK1PcedHdUlxKyxaX82sUGTKWxsezhf/dz0Mn7LpJrtnxUsFcapZazv8ZcxR+91
a0CypNZcGLv04pOvLkpYQGQBOL9IQEmOAjl6F9TFgSMeXezQVqMnVss3
-----END CERTIFICATE-----
