Certificate:
    Data:
        Version: 3 (0x2)
        Serial Number: 268435666 (0x100000d2)
    Signature Algorithm: sha256WithRSAEncryption
        Issuer: C=DE, ST=Hessen, O=privacyidea, CN=CA001
        Validity
            Not Before: Oct 22 06:43:31 2018 GMT
            Not After : Oct 22 06:43:31 2019 GMT
        Subject: C=DE, ST=Hessen, O=privacyidea, CN=usercert
        Subject Public Key Info:
            Public Key Algorithm: rsaEncryption
                Public-Key: (2048 bit)
                Modulus:
                    00:dc:2f:d1:5f:29:97:d4:7c:c3:53:c8:30:bd:4b:
                    67:70:2c:24:6b:b8:5e:eb:21:7a:48:12:56:7c:81:
                    5c:48:75:b6:68:eb:f6:f2:98:4e:50:51:d1:7f:6c:
                    73:f3:0a:a7:ae:be:48:5e:e5:d6:e1:d9:2a:7c:32:
                    6e:4e:fd:08:f6:5a:54:49:23:73:c3:b9:07:18:d1:
                    ef:b3:ac:f8:8a:dc:94:96:a4:90:3a:8e:74:df:e6:
                    0d:37:1b:bd:5b:b7:25:1a:56:39:da:6f:91:aa:5e:
                    1c:74:f3:f9:7c:14:01:83:12:65:76:c7:bb:fe:36:
                    5b:95:e9:72:65:83:ed:3e:98:30:71:fa:87:dd:a3:
                    36:5a:30:03:2e:26:e0:61:d1:bf:02:3f:b6:06:1f:
                    4a:89:28:1c:5c:a2:ff:4e:be:94:e6:8c:e0:da:82:
                    f1:9d:29:32:48:30:73:b4:04:f6:42:1e:be:f7:e2:
                    32:32:27:3c:9d:89:2f:70:3e:85:9a:6f:5c:c5:09:
                    c0:8c:32:2f:72:22:c9:d2:95:1f:b6:ac:72:60:72:
                    b7:82:4d:6b:ce:5b:e3:00:d0:d2:2f:58:c6:e0:10:
                    e5:51:ca:4d:3b:2e:e6:7e:ab:84:d6:56:f1:93:35:
                    a0:93:64:26:81:75:2f:91:b5:16:06:38:0b:db:cc:
                    2d:07
                Exponent: 65537 (0x10001)
        X509v3 extensions:
            X509v3 Key Usage: 
                Digital Signature, Key Encipherment
            X509v3 Basic Constraints: 
                CA:FALSE
            Netscape Cert Type: 
                SSL Server
            Netscape Comment: 
                OpenSSL Generated Server Certificate
            X509v3 Subject Key Identifier: 
                FC:14:D1:F0:4B:8D:00:90:F2:F5:B8:71:9E:4E:97:C3:92:54:AD:0B
            X509v3 Authority Key Identifier: 
                keyid:F4:A7:C0:CC:91:46:AF:64:F3:91:F2:27:F8:C8:B2:6F:8A:87:32:73
                DirName:/C=DE/ST=Hessen/O=privacyidea/CN=CA001
                serial:FB:C8:EB:AC:83:CD:12:07

            X509v3 Extended Key Usage: 
                TLS Web Server Authentication
    Signature Algorithm: sha256WithRSAEncryption
         2b:5b:9b:8e:c1:ad:56:a2:bd:4f:b3:70:f4:6d:7e:8b:4c:1a:
         03:02:c9:45:7f:79:67:04:33:e0:de:05:e0:bb:cb:4b:40:e9:
         c3:37:06:f4:e7:e6:ae:a7:2b:77:f4:a3:8c:d5:86:8b:b0:73:
         b6:b6:f6:b1:21:75:d9:b5:d1:31:71:07:bd:1a:5f:59:8e:90:
         2b:44:0f:52:4c:1b:82:fd:99:6b:a4:0a:a9:c8:bc:31:58:95:
         74:8f:e1:06:33:24:e8:fa:86:6e:aa:f5:8c:88:ce:af:5a:00:
         95:9b:c5:db:38:6a:e5:aa:57:21:36:f3:ea:46:3c:ed:a1:1a:
         72:4c:17:51:91:0a:93:4b:af:93:4e:3d:ad:93:8b:e7:42:21:
         df:cd:82:55:98:39:2a:82:5a:02:d2:0b:15:1d:ff:e6:d3:04:
         e4:98:c5:80:bd:8f:65:e4:65:f3:b6:14:37:8c:82:d7:7c:a3:
         12:e1:a6:5b:31:82:75:e9:61:b9:4f:83:ba:bf:4b:a4:f3:fb:
         7d:3b:a7:12:a2:06:09:22:9c:3a:e3:fe:56:0a:eb:c3:bb:10:
         d8:b3:50:51:2c:3a:8c:e9:db:90:ff:4a:a3:78:00:64:91:31:
         dd:f4:01:f1:7b:a2:16:ab:16:f4:1c:3b:76:68:26:23:f5:f5:
         f6:ef:82:5d
-----BEGIN CERTIFICATE-----
MIIEGTCCAwGgAwIBAgIEEAAA0jANBgkqhkiG9w0BAQsFADBEMQswCQYDVQQGEwJE
RTEPMA0GA1UECAwGSGVzc2VuMRQwEgYDVQQKDAtwcml2YWN5aWRlYTEOMAwGA1UE
AwwFQ0EwMDEwHhcNMTgxMDIyMDY0MzMxWhcNMTkxMDIyMDY0MzMxWjBHMQswCQYD
VQQGEwJERTEPMA0GA1UECAwGSGVzc2VuMRQwEgYDVQQKDAtwcml2YWN5aWRlYTER
MA8GA1UEAwwIdXNlcmNlcnQwggEiMA0GCSqGSIb3DQEBAQUAA4IBDwAwggEKAoIB
AQDcL9FfKZfUfMNTyDC9S2dwLCRruF7rIXpIElZ8gVxIdbZo6/bymE5QUdF/bHPz
Cqeuvkhe5dbh2Sp8Mm5O/Qj2WlRJI3PDuQcY0e+zrPiK3JSWpJA6jnTf5g03G71b
tyUaVjnab5GqXhx08/l8FAGDEmV2x7v+NluV6XJlg+0+mDBx+ofdozZaMAMuJuBh
0b8CP7YGH0qJKBxcov9OvpTmjODagvGdKTJIMHO0BPZCHr734jIyJzydiS9wPoWa
b1zFCcCMMi9yIsnSlR+2rHJgcreCTWvOW+MA0NIvWMbgEOVRyk07LuZ+q4TWVvGT
NaCTZCaBdS+RtRYGOAvbzC0HAgMBAAGjggEOMIIBCjALBgNVHQ8EBAMCBaAwCQYD
VR0TBAIwADARBglghkgBhvhCAQEEBAMCBkAwMwYJYIZIAYb4QgENBCYWJE9wZW5T
U0wgR2VuZXJhdGVkIFNlcnZlciBDZXJ0aWZpY2F0ZTAdBgNVHQ4EFgQU/BTR8EuN
AJDy9bhxnk6Xw5JUrQswdAYDVR0jBG0wa4AU9KfAzJFGr2TzkfIn+Miyb4qHMnOh
SKRGMEQxCzAJBgNVBAYTAkRFMQ8wDQYDVQQIDAZIZXNzZW4xFDASBgNVBAoMC3By
aXZhY3lpZGVhMQ4wDAYDVQQDDAVDQTAwMYIJAPvI66yDzRIHMBMGA1UdJQQMMAoG
CCsGAQUFBwMBMA0GCSqGSIb3DQEBCwUAA4IBAQArW5uOwa1Wor1Ps3D0bX6LTBoD
AslFf3lnBDPg3gXgu8tLQOnDNwb05+aupyt39KOM1YaLsHO2tvaxIXXZtdExcQe9
Gl9ZjpArRA9STBuC/ZlrpAqpyLwxWJV0j+EGMyTo+oZuqvWMiM6vWgCVm8XbOGrl
qlchNvPqRjztoRpyTBdRkQqTS6+TTj2tk4vnQiHfzYJVmDkqgloC0gsVHf/m0wTk
mMWAvY9l5GXzthQ3jILXfKMS4aZbMYJ16WG5T4O6v0uk8/t9O6cSogYJIpw64/5W
CuvDuxDYs1BRLDqM6duQ/0qjeABkkTHd9AHxe6IWqxb0HDt2aCYj9fX274Jd
-----END CERTIFICATE-----
