Certificate:
    Data:
        Version: 3 (0x2)
        Serial Number: 268435723 (0x1000010b)
    Signature Algorithm: sha1WithRSAEncryption
        Issuer: C=DE, ST=Hessen, O=privacyidea, CN=CA001
        Validity
            Not Before: Apr 26 15:32:56 2016 GMT
            Not After : Apr 26 15:32:56 2017 GMT
        Subject: OU=local, CN=corny/emailAddress=corny@cornelinux.de
        Subject Public Key Info:
            Public Key Algorithm: rsaEncryption
                Public-Key: (2048 bit)
                Modulus:
                    00:c2:fa:8f:26:79:07:99:6b:40:82:49:a1:be:d9:
                    21:31:b1:04:6b:89:cd:77:4b:a4:a7:0c:9c:31:15:
                    ac:a3:20:50:ce:14:29:d6:65:6b:b3:42:3e:b7:3d:
                    3f:51:45:56:d0:32:a4:85:43:a1:2a:20:e6:b8:8b:
                    7c:c9:07:d8:e5:ef:30:22:a1:8f:2a:bb:db:76:7b:
                    af:58:26:af:74:f9:ee:83:ae:37:f2:e8:8a:4a:07:
                    7d:0b:ed:62:12:be:cd:20:eb:82:3b:89:de:fe:7d:
                    5a:f5:d2:c2:68:e8:b3:43:68:f7:d6:11:2b:c5:bb:
                    bc:d4:3e:99:f2:da:75:29:53:37:41:62:44:a7:a3:
                    3c:15:a6:76:76:26:fe:78:64:e5:bb:9a:70:39:07:
                    d7:6e:02:9f:c8:c2:2d:14:45:98:db:08:b4:a5:77:
                    fe:d4:52:8f:b8:05:26:28:04:1c:0e:ef:6e:ea:f8:
                    7a:5d:bf:db:ae:83:4d:ed:da:ac:c5:de:ab:98:5a:
                    48:27:9e:f0:a9:c0:79:74:59:64:2c:0f:95:98:1d:
                    97:8d:22:9e:d0:d5:86:ae:10:18:61:33:ac:02:d3:
                    0a:cc:a6:e2:80:74:ed:2b:63:bd:a2:d1:a5:39:5d:
                    fe:f2:2d:5e:f6:0a:a7:63:d9:a8:a5:59:1e:c7:ec:
                    bc:03
                Exponent: 65537 (0x10001)
        X509v3 extensions:
            X509v3 Key Usage: 
                Digital Signature, Key Encipherment
            X509v3 Basic Constraints: 
                CA:FALSE
            Netscape Cert Type: 
                SSL Server
            Netscape Comment: 
                OpenSSL Generated Server Certificate
            X509v3 Subject Key Identifier: 
                F1:DA:F7:C0:12:8B:32:F1:5C:57:01:38:54:8E:40:A7:72:2C:25:5F
            X509v3 Authority Key Identifier: 
                keyid:F4:A7:C0:CC:91:46:AF:64:F3:91:F2:27:F8:C8:B2:6F:8A:87:32:73
                DirName:/C=DE/ST=Hessen/O=privacyidea/CN=CA001
                serial:FB:C8:EB:AC:83:CD:12:07

            X509v3 Extended Key Usage: 
                TLS Web Server Authentication
    Signature Algorithm: sha1WithRSAEncryption
         84:73:de:e9:c4:a0:05:b7:35:5b:7f:94:21:54:a8:c5:e2:6a:
         bb:3b:dd:32:1c:cf:44:23:e9:6f:c6:db:dd:87:65:93:40:be:
         a9:8f:39:6c:2f:d0:4f:75:70:38:d3:58:ec:c4:9a:78:17:9d:
         ac:7f:fa:a5:34:df:80:ac:cb:44:15:7d:03:5a:b4:2b:43:56:
         59:6c:c8:45:a0:98:1e:39:1f:52:13:62:76:22:66:55:14:32:
         5a:01:80:c4:49:c1:27:50:00:0d:ad:19:d8:bf:55:8e:a5:16:
         98:8f:6d:e7:2d:78:54:b6:83:6d:97:ce:82:20:7a:09:14:8f:
         d4:e1:23:90:00:6a:57:e4:16:ab:31:d7:77:a2:6a:dc:5b:26:
         dc:2b:84:8b:25:62:9b:9b:dd:15:63:dd:f5:0a:a0:32:17:29:
         e9:a7:9f:5d:34:51:be:63:11:e8:c4:77:ab:d4:b5:78:36:77:
         d8:de:8b:59:d9:d7:d9:32:85:b0:d6:b6:8e:a5:a9:09:d8:36:
         a4:d7:53:cf:09:f6:6e:4d:09:f4:f0:49:2c:e9:be:dc:f4:cf:
         7d:7a:fb:c3:1a:c3:45:a8:63:87:05:4b:0c:6d:19:28:7d:5f:
         67:ba:3c:c9:c0:d9:bc:97:29:2c:8d:61:ec:c3:fc:06:0c:26:
         fe:99:fc:eb
-----BEGIN CERTIFICATE-----
MIIEFjCCAv6gAwIBAgIEEAABCzANBgkqhkiG9w0BAQUFADBEMQswCQYDVQQGEwJE
RTEPMA0GA1UECAwGSGVzc2VuMRQwEgYDVQQKDAtwcml2YWN5aWRlYTEOMAwGA1UE
AwwFQ0EwMDEwHhcNMTYwNDI2MTUzMjU2WhcNMTcwNDI2MTUzMjU2WjBEMQ4wDAYD
VQQLEwVsb2NhbDEOMAwGA1UEAxMFY29ybnkxIjAgBgkqhkiG9w0BCQEWE2Nvcm55
QGNvcm5lbGludXguZGUwggEiMA0GCSqGSIb3DQEBAQUAA4IBDwAwggEKAoIBAQDC
+o8meQeZa0CCSaG+2SExsQRric13S6SnDJwxFayjIFDOFCnWZWuzQj63PT9RRVbQ
MqSFQ6EqIOa4i3zJB9jl7zAioY8qu9t2e69YJq90+e6Drjfy6IpKB30L7WISvs0g
64I7id7+fVr10sJo6LNDaPfWESvFu7zUPpny2nUpUzdBYkSnozwVpnZ2Jv54ZOW7
mnA5B9duAp/Iwi0URZjbCLSld/7UUo+4BSYoBBwO727q+Hpdv9uug03t2qzF3quY
WkgnnvCpwHl0WWQsD5WYHZeNIp7Q1YauEBhhM6wC0wrMpuKAdO0rY72i0aU5Xf7y
LV72Cqdj2ailWR7H7LwDAgMBAAGjggEOMIIBCjALBgNVHQ8EBAMCBaAwCQYDVR0T
BAIwADARBglghkgBhvhCAQEEBAMCBkAwMwYJYIZIAYb4QgENBCYWJE9wZW5TU0wg
R2VuZXJhdGVkIFNlcnZlciBDZXJ0aWZpY2F0ZTAdBgNVHQ4EFgQU8dr3wBKLMvFc
VwE4VI5Ap3IsJV8wdAYDVR0jBG0wa4AU9KfAzJFGr2TzkfIn+Miyb4qHMnOhSKRG
MEQxCzAJBgNVBAYTAkRFMQ8wDQYDVQQIDAZIZXNzZW4xFDASBgNVBAoMC3ByaXZh
Y3lpZGVhMQ4wDAYDVQQDDAVDQTAwMYIJAPvI66yDzRIHMBMGA1UdJQQMMAoGCCsG
AQUFBwMBMA0GCSqGSIb3DQEBBQUAA4IBAQCEc97pxKAFtzVbf5QhVKjF4mq7O90y
HM9EI+lvxtvdh2WTQL6pjzlsL9BPdXA401jsxJp4F52sf/qlNN+ArMtEFX0DWrQr
Q1ZZbMhFoJgeOR9SE2J2ImZVFDJaAYDEScEnUAANrRnYv1WOpRaYj23nLXhUtoNt
l86CIHoJFI/U4SOQAGpX5BarMdd3omrcWybcK4SLJWKbm90VY931CqAyFynpp59d
NFG+YxHoxHer1LV4NnfY3otZ2dfZMoWw1raOpakJ2Dak11PPCfZuTQn08Eks6b7c
9M99evvDGsNFqGOHBUsMbRkofV9nujzJwNm8lyksjWHsw/wGDCb+mfzr
-----END CERTIFICATE-----
