Certificate:
    Data:
        Version: 3 (0x2)
        Serial Number: 268435695 (0x100000ef)
    Signature Algorithm: sha256WithRSAEncryption
        Issuer: C=DE, ST=Hessen, O=privacyidea, CN=CA001
        Validity
            Not Before: Apr 27 16:18:46 2017 GMT
            Not After : Apr 27 16:18:46 2018 GMT
        Subject: OU=realm1, CN=cornelius/emailAddress=user@localhost.localdomain
        Subject Public Key Info:
            Public Key Algorithm: rsaEncryption
                Public-Key: (2048 bit)
                Modulus:
                    00:c8:e0:78:96:c1:2f:4f:34:cb:87:41:e1:97:e3:
                    25:f9:68:8b:34:e8:20:72:bb:fa:37:81:ab:4c:b0:
                    9a:b6:2d:77:0d:28:67:39:d2:37:dd:e5:9f:b8:90:
                    70:d7:14:c8:65:f0:ee:c1:94:9d:db:ac:e0:48:d9:
                    ff:48:d1:d5:03:a7:e6:4b:d0:d5:9e:26:64:f7:3e:
                    d2:3b:72:99:4d:d3:31:2b:be:68:22:72:ce:54:02:
                    23:e3:e7:29:ef:b7:69:bb:60:f9:8c:bf:f9:82:a0:
                    18:88:68:17:d3:b6:2c:1b:85:e9:94:c3:8b:da:3a:
                    8f:2d:e6:1a:6d:07:5b:91:09:8c:4f:8e:dc:2c:da:
                    91:33:2a:07:75:f0:67:d9:8f:2f:cd:46:f8:b9:8e:
                    6b:40:31:ae:8d:6e:08:fb:df:03:8e:d0:3b:3f:3d:
                    e5:bf:5f:4f:f5:be:5c:d4:e5:21:34:07:2c:3e:8d:
                    37:b6:7c:1f:28:16:9a:2b:a4:6c:25:fe:e4:f4:78:
                    d5:5d:16:40:c0:b5:4c:86:24:35:58:7a:b6:86:f6:
                    dd:41:01:07:48:37:a9:c5:b0:d9:b2:c0:5b:94:63:
                    39:fd:6a:28:3f:42:ed:fe:07:ec:f9:36:ed:89:76:
                    5d:85:82:10:33:54:63:2f:72:a8:18:74:8c:3a:94:
                    92:e3
                Exponent: 65537 (0x10001)
        X509v3 extensions:
            X509v3 Key Usage: 
                Digital Signature, Key Encipherment
            X509v3 Basic Constraints: 
                CA:FALSE
            Netscape Cert Type: 
                SSL Server
            Netscape Comment: 
                OpenSSL Generated Server Certificate
            X509v3 Subject Key Identifier: 
                28:12:B2:23:8F:F0:2D:F2:79:D0:D9:6B:30:DA:92:8C:9E:0D:0D:27
            X509v3 Authority Key Identifier: 
                keyid:F4:A7:C0:CC:91:46:AF:64:F3:91:F2:27:F8:C8:B2:6F:8A:87:32:73
                DirName:/C=DE/ST=Hessen/O=privacyidea/CN=CA001
                serial:FB:C8:EB:AC:83:CD:12:07

            X509v3 Extended Key Usage: 
                TLS Web Server Authentication
    Signature Algorithm: sha256WithRSAEncryption
         19:0b:12:7c:8b:80:59:6b:3c:22:52:34:ee:be:1e:6a:e7:2b:
         14:e5:c6:f4:26:c6:17:10:e5:59:14:4c:31:f2:bb:0d:3c:4f:
         e4:3f:9f:67:b4:60:65:b2:e3:58:b0:4e:43:89:c8:70:cd:9a:
         f4:b5:c0:42:a8:f0:f8:f1:a7:15:02:7b:6a:02:7d:25:c0:00:
         c1:ee:4c:6c:a8:5c:e1:32:b0:65:76:1f:fb:b8:f2:cf:6a:a8:
         c0:65:46:7c:8c:c7:ec:6b:44:29:8f:3f:4f:57:54:b0:f8:7d:
         c2:44:d1:04:e4:8c:ef:2b:a9:1c:70:55:0c:7d:d1:0d:57:e1:
         81:b3:43:a7:e8:7f:48:da:d4:e7:c4:86:53:67:a8:8f:0e:de:
         fd:45:6e:46:7d:58:fe:83:3f:52:14:3b:a5:4a:f8:4c:45:5d:
         a0:38:24:51:78:22:fa:51:8c:dd:82:8a:84:ae:bd:74:76:56:
         1f:15:0d:50:e3:a9:e4:ab:fe:2a:d0:7b:85:af:b2:20:91:6e:
         f3:a7:fc:ec:07:35:72:2c:b4:e8:e1:a0:9d:a9:ee:1d:de:6e:
         ed:f2:24:0d:9f:80:38:c4:b0:9f:f4:61:1d:29:b2:50:e5:8c:
         2d:86:5c:cd:af:f7:b1:ed:ce:5d:f2:7e:11:4c:88:8c:57:62:
         58:ac:42:97
-----BEGIN CERTIFICATE-----
MIIEIjCCAwqgAwIBAgIEEAAA7zANBgkqhkiG9w0BAQsFADBEMQswCQYDVQQGEwJE
RTEPMA0GA1UECAwGSGVzc2VuMRQwEgYDVQQKDAtwcml2YWN5aWRlYTEOMAwGA1UE
AwwFQ0EwMDEwHhcNMTcwNDI3MTYxODQ2WhcNMTgwNDI3MTYxODQ2WjBQMQ8wDQYD
VQQLDAZyZWFsbTExEjAQBgNVBAMMCWNvcm5lbGl1czEpMCcGCSqGSIb3DQEJARYa
dXNlckBsb2NhbGhvc3QubG9jYWxkb21haW4wggEiMA0GCSqGSIb3DQEBAQUAA4IB
DwAwggEKAoIBAQDI4HiWwS9PNMuHQeGX4yX5aIs06CByu/o3gatMsJq2LXcNKGc5
0jfd5Z+4kHDXFMhl8O7BlJ3brOBI2f9I0dUDp+ZL0NWeJmT3PtI7cplN0zErvmgi
cs5UAiPj5ynvt2m7YPmMv/mCoBiIaBfTtiwbhemUw4vaOo8t5hptB1uRCYxPjtws
2pEzKgd18GfZjy/NRvi5jmtAMa6Nbgj73wOO0Ds/PeW/X0/1vlzU5SE0Byw+jTe2
fB8oFporpGwl/uT0eNVdFkDAtUyGJDVYeraG9t1BAQdIN6nFsNmywFuUYzn9aig/
Qu3+B+z5Nu2Jdl2FghAzVGMvcqgYdIw6lJLjAgMBAAGjggEOMIIBCjALBgNVHQ8E
BAMCBaAwCQYDVR0TBAIwADARBglghkgBhvhCAQEEBAMCBkAwMwYJYIZIAYb4QgEN
BCYWJE9wZW5TU0wgR2VuZXJhdGVkIFNlcnZlciBDZXJ0aWZpY2F0ZTAdBgNVHQ4E
FgQUKBKyI4/wLfJ50NlrMNqSjJ4NDScwdAYDVR0jBG0wa4AU9KfAzJFGr2TzkfIn
+Miyb4qHMnOhSKRGMEQxCzAJBgNVBAYTAkRFMQ8wDQYDVQQIDAZIZXNzZW4xFDAS
BgNVBAoMC3ByaXZhY3lpZGVhMQ4wDAYDVQQDDAVDQTAwMYIJAPvI66yDzRIHMBMG
A1UdJQQMMAoGCCsGAQUFBwMBMA0GCSqGSIb3DQEBCwUAA4IBAQAZCxJ8i4BZazwi
UjTuvh5q5ysU5cb0JsYXEOVZFEwx8rsNPE/kP59ntGBlsuNYsE5DichwzZr0tcBC
qPD48acVAntqAn0lwADB7kxsqFzhMrBldh/7uPLPaqjAZUZ8jMfsa0Qpjz9PV1Sw
+H3CRNEE5IzvK6kccFUMfdENV+GBs0On6H9I2tTnxIZTZ6iPDt79RW5GfVj+gz9S
FDulSvhMRV2gOCRReCL6UYzdgoqErr10dlYfFQ1Q46nkq/4q0HuFr7IgkW7zp/zs
BzVyLLTo4aCdqe4d3m7t8iQNn4A4xLCf9GEdKbJQ5YwthlzNr/ex7c5d8n4RTIiM
V2JYrEKX
-----END CERTIFICATE-----
