Certificate:
    Data:
        Version: 3 (0x2)
        Serial Number: 268435672 (0x100000d8)
    Signature Algorithm: sha256WithRSAEncryption
        Issuer: C=DE, ST=Hessen, O=privacyidea, CN=CA001
        Validity
            Not Before: Aug 30 15:53:45 2018 GMT
            Not After : Aug 30 15:53:45 2019 GMT
        Subject: CN=Steve Test/emailAddress=steve@openssl.org
        Subject Public Key Info:
            Public Key Algorithm: rsaEncryption
                Public-Key: (2048 bit)
                Modulus:
                    00:d2:81:89:20:51:48:0f:73:f4:11:32:24:d5:1f:
                    1c:fd:5c:f5:b6:e6:c5:f0:52:81:dc:d2:af:66:4a:
                    7c:93:31:61:5c:af:d1:6d:06:70:03:60:7c:72:0c:
                    88:dd:49:cd:9e:02:6c:d2:5a:d7:53:0f:f3:da:be:
                    69:64:b5:0f:0c:00:e3:b3:50:47:a3:b3:9b:ba:13:
                    50:d6:58:5a:4b:ab:39:e0:11:ca:0a:27:67:03:78:
                    22:66:6d:92:1e:1b:5c:49:ae:e6:6b:d1:8e:3b:9d:
                    06:d3:c6:ac:4d:53:43:10:ab:e8:96:c1:87:82:97:
                    99:8f:20:d3:99:12:37:31:84:e1:8a:ff:29:03:5f:
                    22:90:3e:7f:9b:e0:20:c1:ad:dc:ae:4c:39:1a:31:
                    96:17:02:8c:b2:d9:b4:0d:20:12:9b:7d:86:54:fd:
                    33:fd:c1:2a:62:46:f8:60:96:cf:6e:01:6f:22:df:
                    13:47:e7:97:ec:05:72:23:a3:62:f8:fa:ef:ac:9c:
                    72:f0:37:cb:2f:37:cf:90:a8:27:51:86:c6:d7:78:
                    08:8f:7e:25:a2:15:70:a2:fb:1c:b6:15:5e:a0:97:
                    8b:81:4c:09:28:8a:27:3b:94:bc:71:db:5b:71:37:
                    9a:2b:16:e0:6f:b5:c9:f5:4b:4f:20:ba:65:cf:af:
                    ad:ad
                Exponent: 65537 (0x10001)
        X509v3 extensions:
            X509v3 Key Usage: 
                Digital Signature, Key Encipherment
            X509v3 Basic Constraints: 
                CA:FALSE
            Netscape Cert Type: 
                SSL Server
            Netscape Comment: 
                OpenSSL Generated Server Certificate
            X509v3 Subject Key Identifier: 
                E5:25:6D:3E:AF:0D:DD:3F:4C:F2:45:19:39:D5:14:DB:7E:9C:C0:AD
            X509v3 Authority Key Identifier: 
                keyid:F4:A7:C0:CC:91:46:AF:64:F3:91:F2:27:F8:C8:B2:6F:8A:87:32:73
                DirName:/C=DE/ST=Hessen/O=privacyidea/CN=CA001
                serial:FB:C8:EB:AC:83:CD:12:07

            X509v3 Extended Key Usage: 
                TLS Web Server Authentication
    Signature Algorithm: sha256WithRSAEncryption
         95:66:4f:0e:40:43:49:8e:ec:69:9b:31:c6:0d:31:ca:3a:fa:
         64:23:7b:c3:6f:e1:a6:fe:45:4f:9c:ba:91:5b:46:71:24:7f:
         a3:b9:72:70:10:e2:db:c4:7c:81:d8:aa:17:0f:91:40:7f:c0:
         50:c4:14:f1:eb:69:1b:f0:9e:84:23:76:12:1e:f1:c5:d6:d8:
         2a:38:bc:1d:ee:15:b5:4f:d6:40:35:e8:7d:75:b6:db:56:f4:
         34:a2:b7:e9:f4:ce:5a:6d:db:5f:69:b1:27:42:0a:17:87:39:
         40:dd:c9:f6:51:f0:1b:1d:c1:b3:a4:22:18:e7:24:ba:ad:4f:
         b0:6b:90:26:3e:9c:86:84:47:b3:98:ad:b8:e6:82:22:3e:de:
         58:ca:e7:94:38:49:5e:d1:df:48:e8:a0:4e:a0:98:6f:89:d6:
         c9:ec:34:7d:36:7b:f2:e2:e8:c4:10:d0:76:44:47:66:ed:11:
         dd:ec:c1:1b:ba:4f:e7:c8:1d:a9:f2:2a:b1:a8:00:8c:e4:d8:
         ad:fa:86:1c:cd:66:a6:74:aa:9e:f2:ae:85:e2:32:a7:91:ec:
         39:50:6e:b2:4b:71:ca:ca:31:7b:96:7d:f7:04:8a:08:6d:2a:
         90:4e:84:e9:f7:c1:8f:82:90:d3:1b:c5:11:fd:39:6e:2f:53:
         27:40:cb:18
-----BEGIN CERTIFICATE-----
MIIECTCCAvGgAwIBAgIEEAAA2DANBgkqhkiG9w0BAQsFADBEMQswCQYDVQQGEwJE
RTEPMA0GA1UECAwGSGVzc2VuMRQwEgYDVQQKDAtwcml2YWN5aWRlYTEOMAwGA1UE
AwwFQ0EwMDEwHhcNMTgwODMwMTU1MzQ1WhcNMTkwODMwMTU1MzQ1WjA3MRMwEQYD
VQQDDApTdGV2ZSBUZXN0MSAwHgYJKoZIhvcNAQkBFhFzdGV2ZUBvcGVuc3NsLm9y
ZzCCASIwDQYJKoZIhvcNAQEBBQADggEPADCCAQoCggEBANKBiSBRSA9z9BEyJNUf
HP1c9bbmxfBSgdzSr2ZKfJMxYVyv0W0GcANgfHIMiN1JzZ4CbNJa11MP89q+aWS1
DwwA47NQR6Ozm7oTUNZYWkurOeARygonZwN4ImZtkh4bXEmu5mvRjjudBtPGrE1T
QxCr6JbBh4KXmY8g05kSNzGE4Yr/KQNfIpA+f5vgIMGt3K5MORoxlhcCjLLZtA0g
Ept9hlT9M/3BKmJG+GCWz24BbyLfE0fnl+wFciOjYvj676yccvA3yy83z5CoJ1GG
xtd4CI9+JaIVcKL7HLYVXqCXi4FMCSiKJzuUvHHbW3E3misW4G+1yfVLTyC6Zc+v
ra0CAwEAAaOCAQ4wggEKMAsGA1UdDwQEAwIFoDAJBgNVHRMEAjAAMBEGCWCGSAGG
+EIBAQQEAwIGQDAzBglghkgBhvhCAQ0EJhYkT3BlblNTTCBHZW5lcmF0ZWQgU2Vy
dmVyIENlcnRpZmljYXRlMB0GA1UdDgQWBBTlJW0+rw3dP0zyRRk51RTbfpzArTB0
BgNVHSMEbTBrgBT0p8DMkUavZPOR8if4yLJviocyc6FIpEYwRDELMAkGA1UEBhMC
REUxDzANBgNVBAgMBkhlc3NlbjEUMBIGA1UECgwLcHJpdmFjeWlkZWExDjAMBgNV
BAMMBUNBMDAxggkA+8jrrIPNEgcwEwYDVR0lBAwwCgYIKwYBBQUHAwEwDQYJKoZI
hvcNAQELBQADggEBAJVmTw5AQ0mO7GmbMcYNMco6+mQje8Nv4ab+RU+cupFbRnEk
f6O5cnAQ4tvEfIHYqhcPkUB/wFDEFPHraRvwnoQjdhIe8cXW2Co4vB3uFbVP1kA1
6H11tttW9DSit+n0zlpt219psSdCCheHOUDdyfZR8BsdwbOkIhjnJLqtT7BrkCY+
nIaER7OYrbjmgiI+3ljK55Q4SV7R30jooE6gmG+J1snsNH02e/Li6MQQ0HZER2bt
Ed3swRu6T+fIHanyKrGoAIzk2K36hhzNZqZ0qp7yroXiMqeR7DlQbrJLccrKMXuW
ffcEightKpBOhOn3wY+CkNMbxRH9OW4vUydAyxg=
-----END CERTIFICATE-----
