Certificate:
    Data:
        Version: 3 (0x2)
        Serial Number: 268435684 (0x100000e4)
    Signature Algorithm: sha256WithRSAEncryption
        Issuer: C=DE, ST=Hessen, O=privacyidea, CN=CA001
        Validity
            Not Before: Jun  5 17:37:16 2018 GMT
            Not After : Jun  5 17:37:16 2019 GMT
        Subject: CN=selfservice,CN=user,O=realm1/emailAddress=meine
        Subject Public Key Info:
            Public Key Algorithm: rsaEncryption
                Public-Key: (2048 bit)
                Modulus:
                    00:cf:3c:d4:33:0e:12:c4:e6:da:cd:b6:56:a1:1c:
                    26:bb:26:1c:8a:4a:73:a8:58:8a:b6:1e:b3:8b:99:
                    d2:1d:07:c2:92:89:79:c0:69:d8:c8:df:28:61:98:
                    1e:b3:fe:ae:2b:bd:78:a9:f7:6e:47:dc:a3:a0:16:
                    8c:85:02:c1:4e:92:fd:72:6e:f0:c8:03:29:9b:b8:
                    00:6e:c0:83:95:c8:34:20:36:9c:b3:e5:e4:e6:76:
                    73:a3:1a:ad:40:96:e0:53:54:00:ec:76:79:9a:c6:
                    0d:7e:b6:bd:29:ec:83:f3:cb:89:a4:cb:6c:00:ba:
                    0c:c5:78:0f:ff:69:b8:94:f4:04:70:43:3f:d8:9e:
                    d7:a7:fb:5d:ce:75:8e:da:e7:c4:07:b1:9d:de:6f:
                    88:4b:b6:4d:9a:cf:f9:bc:fa:9f:cd:32:6d:f6:3a:
                    0b:0d:23:42:78:ec:97:42:bf:0e:4d:60:56:e1:d3:
                    02:f2:19:cb:84:57:90:e5:70:a1:a2:83:35:86:e2:
                    da:86:9f:f9:8a:c4:79:b3:52:28:da:cb:bb:34:ca:
                    d3:da:91:4a:cf:8d:76:a2:b2:6b:9b:f9:96:fd:09:
                    2a:da:11:23:4d:f0:cb:d6:b2:b1:0e:12:6c:9a:19:
                    65:98:87:ca:e4:ee:24:ce:44:ac:90:8f:9d:1b:c5:
                    2a:9d
                Exponent: 65537 (0x10001)
        X509v3 extensions:
            X509v3 Key Usage: 
                Digital Signature, Key Encipherment
            X509v3 Basic Constraints: 
                CA:FALSE
            Netscape Cert Type: 
                SSL Server
            Netscape Comment: 
                OpenSSL Generated Server Certificate
            X509v3 Subject Key Identifier: 
                4D:07:90:AD:FF:1D:0D:E7:1A:DD:D6:2E:FA:BA:34:CB:AA:1F:24:C6
            X509v3 Authority Key Identifier: 
                keyid:F4:A7:C0:CC:91:46:AF:64:F3:91:F2:27:F8:C8:B2:6F:8A:87:32:73
                DirName:/C=DE/ST=Hessen/O=privacyidea/CN=CA001
                serial:FB:C8:EB:AC:83:CD:12:07

            X509v3 Extended Key Usage: 
                TLS Web Server Authentication
    Signature Algorithm: sha256WithRSAEncryption
         0f:77:9b:f4:6b:3d:10:e4:e9:4c:a3:10:be:52:42:19:64:13:
         48:e8:57:8c:4c:79:f6:12:38:bf:11:e6:74:98:31:46:30:8d:
         1e:d5:8a:7c:f6:fe:b7:25:49:c0:ec:b7:85:b1:78:1c:8e:f0:
         82:2d:d0:14:8b:08:c1:67:6c:3e:b6:1b:02:27:97:49:29:da:
         1d:bd:d3:1c:92:87:84:8e:90:b1:da:67:e3:09:87:e6:cf:00:
         04:cd:a2:e7:7e:b0:9c:e6:47:06:af:6c:eb:bd:e3:8c:e9:e1:
         f4:4d:f1:dd:27:ac:42:67:4b:d8:47:e3:7f:cf:86:04:07:e5:
         14:05:01:d9:98:89:19:b9:eb:9c:4e:eb:10:96:ff:4c:1a:94:
         54:59:dc:60:e8:56:cc:58:18:08:62:4c:bb:a2:66:a0:7e:47:
         70:30:dd:0a:83:1d:53:fb:45:ab:e5:b1:5d:23:2a:a7:d7:22:
         cc:08:ca:52:07:27:8d:5b:91:d3:d3:c3:d6:31:1f:6f:b3:bd:
         99:9c:79:f2:22:6f:fd:2a:45:5d:56:71:5d:02:eb:f5:48:42:
         7a:24:c1:27:92:9a:37:41:34:10:88:ec:22:8c:42:b0:c2:69:
         bc:78:ac:17:dd:a8:50:af:01:43:b2:a9:c7:19:c7:96:97:13:
         26:2f:4d:d6
-----BEGIN CERTIFICATE-----
MIIEDzCCAvegAwIBAgIEEAAA5DANBgkqhkiG9w0BAQsFADBEMQswCQYDVQQGEwJE
RTEPMA0GA1UECAwGSGVzc2VuMRQwEgYDVQQKDAtwcml2YWN5aWRlYTEOMAwGA1UE
AwwFQ0EwMDEwHhcNMTgwNjA1MTczNzE2WhcNMTkwNjA1MTczNzE2WjA9MSUwIwYD
VQQDDBxzZWxmc2VydmljZSxDTj11c2VyLE89cmVhbG0xMRQwEgYJKoZIhvcNAQkB
FgVtZWluZTCCASIwDQYJKoZIhvcNAQEBBQADggEPADCCAQoCggEBAM881DMOEsTm
2s22VqEcJrsmHIpKc6hYirYes4uZ0h0HwpKJecBp2MjfKGGYHrP+riu9eKn3bkfc
o6AWjIUCwU6S/XJu8MgDKZu4AG7Ag5XINCA2nLPl5OZ2c6MarUCW4FNUAOx2eZrG
DX62vSnsg/PLiaTLbAC6DMV4D/9puJT0BHBDP9ie16f7Xc51jtrnxAexnd5viEu2
TZrP+bz6n80ybfY6Cw0jQnjsl0K/Dk1gVuHTAvIZy4RXkOVwoaKDNYbi2oaf+YrE
ebNSKNrLuzTK09qRSs+NdqKya5v5lv0JKtoRI03wy9aysQ4SbJoZZZiHyuTuJM5E
rJCPnRvFKp0CAwEAAaOCAQ4wggEKMAsGA1UdDwQEAwIFoDAJBgNVHRMEAjAAMBEG
CWCGSAGG+EIBAQQEAwIGQDAzBglghkgBhvhCAQ0EJhYkT3BlblNTTCBHZW5lcmF0
ZWQgU2VydmVyIENlcnRpZmljYXRlMB0GA1UdDgQWBBRNB5Ct/x0N5xrd1i76ujTL
qh8kxjB0BgNVHSMEbTBrgBT0p8DMkUavZPOR8if4yLJviocyc6FIpEYwRDELMAkG
A1UEBhMCREUxDzANBgNVBAgMBkhlc3NlbjEUMBIGA1UECgwLcHJpdmFjeWlkZWEx
DjAMBgNVBAMMBUNBMDAxggkA+8jrrIPNEgcwEwYDVR0lBAwwCgYIKwYBBQUHAwEw
DQYJKoZIhvcNAQELBQADggEBAA93m/RrPRDk6UyjEL5SQhlkE0joV4xMefYSOL8R
5nSYMUYwjR7Vinz2/rclScDst4WxeByO8IIt0BSLCMFnbD62GwInl0kp2h290xyS
h4SOkLHaZ+MJh+bPAATNoud+sJzmRwavbOu944zp4fRN8d0nrEJnS9hH43/PhgQH
5RQFAdmYiRm565xO6xCW/0walFRZ3GDoVsxYGAhiTLuiZqB+R3Aw3QqDHVP7Ravl
sV0jKqfXIswIylIHJ41bkdPTw9YxH2+zvZmcefIib/0qRV1WcV0C6/VIQnokwSeS
mjdBNBCI7CKMQrDCabx4rBfdqFCvAUOyqccZx5aXEyYvTdY=
-----END CERTIFICATE-----
