Certificate:
    Data:
        Version: 3 (0x2)
        Serial Number: 268435717 (0x10000105)
    Signature Algorithm: sha1WithRSAEncryption
        Issuer: C=DE, ST=Hessen, O=privacyidea, CN=CA001
        Validity
            Not Before: Apr 26 14:45:43 2016 GMT
            Not After : Apr 26 14:45:43 2017 GMT
        Subject: OU=local, CN=corny/emailAddress=corny@cornelinux.de
        Subject Public Key Info:
            Public Key Algorithm: rsaEncryption
                Public-Key: (2048 bit)
                Modulus:
                    00:a3:6d:85:69:d8:8e:7c:61:f8:9e:a9:3b:87:1d:
                    a4:2d:e0:46:a5:f9:d3:3b:3e:f2:1c:b0:5f:60:dc:
                    e7:39:cd:33:f2:32:11:aa:1f:2b:c0:50:fd:79:54:
                    9a:b5:1a:22:49:50:d2:d8:4c:44:b1:33:b2:55:6c:
                    54:e4:f7:b2:f0:8d:f5:0b:d4:e4:f4:5f:dc:6f:d2:
                    b2:ef:5c:fb:bf:7c:44:2a:72:bc:01:45:6d:4d:cc:
                    ad:7c:f9:38:4d:ff:4e:50:3a:6d:31:6a:5e:73:55:
                    2e:f3:4c:c1:b6:ee:70:7e:0b:31:07:ce:0a:c4:fc:
                    c9:36:78:8b:9c:92:21:9b:68:04:fb:10:c8:9e:4e:
                    ba:07:87:c4:10:bd:8c:0b:de:6d:42:74:1a:72:6c:
                    49:cb:d1:1e:f2:22:81:24:a5:83:2d:d0:ee:75:fd:
                    1e:13:35:96:f9:2c:01:39:2c:01:7d:51:db:ec:eb:
                    a6:3a:cc:ce:ed:68:33:cd:98:bd:7a:3e:9b:31:f6:
                    1d:74:8d:c0:e1:9d:72:8e:99:f8:c6:05:ff:c7:de:
                    d0:94:df:51:10:9b:27:10:3b:90:60:02:ff:7c:19:
                    fb:8c:1d:7e:d8:c7:7a:0e:e7:48:7e:e5:e7:70:c6:
                    99:0b:86:75:6e:b5:b5:a9:eb:09:0a:5b:86:81:fc:
                    1c:75
                Exponent: 65537 (0x10001)
        X509v3 extensions:
            X509v3 Key Usage: 
                Digital Signature, Key Encipherment
            X509v3 Basic Constraints: 
                CA:FALSE
            Netscape Cert Type: 
                SSL Server
            Netscape Comment: 
                OpenSSL Generated Server Certificate
            X509v3 Subject Key Identifier: 
                87:65:2B:50:64:FC:63:2A:8E:74:DC:77:95:B9:27:EE:5F:A5:93:84
            X509v3 Authority Key Identifier: 
                keyid:F4:A7:C0:CC:91:46:AF:64:F3:91:F2:27:F8:C8:B2:6F:8A:87:32:73
                DirName:/C=DE/ST=Hessen/O=privacyidea/CN=CA001
                serial:FB:C8:EB:AC:83:CD:12:07

            X509v3 Extended Key Usage: 
                TLS Web Server Authentication
    Signature Algorithm: sha1WithRSAEncryption
         60:f3:ba:44:6c:69:be:7d:89:41:d7:d8:bb:a0:38:9c:97:89:
         b6:2f:e9:ff:5e:1f:21:25:7c:3b:45:84:83:fb:d0:75:69:a1:
         c5:a9:16:64:76:7a:98:46:b1:12:c0:f5:72:36:9d:c0:3a:fe:
         5b:98:f6:12:09:12:11:bd:fb:e5:45:70:52:fe:e7:88:00:38:
         e2:68:d4:fc:c7:6f:e4:2e:59:16:83:52:eb:71:d3:a3:69:8b:
         56:4a:cc:6f:f5:ba:cd:4c:f9:1c:eb:6e:07:04:80:19:68:f0:
         f7:29:77:a4:cb:6a:ce:1e:92:e3:65:2d:2e:bf:fb:e8:7c:56:
         c9:2c:a8:fa:0f:46:65:ee:36:78:fa:36:c2:b2:47:d8:bf:5a:
         11:1c:d2:a9:00:84:85:9f:f6:3a:b4:3b:d9:fe:17:10:ee:58:
         ef:6f:ec:17:00:b3:7a:d6:1e:b0:3e:a3:a1:bd:b2:dc:92:3d:
         cd:5d:f1:d4:ae:4a:cc:fd:69:51:8d:f5:56:c0:09:61:91:ed:
         bd:ea:c8:bd:43:8f:7a:3a:89:db:7f:76:0b:2f:18:5a:47:37:
         6e:54:e7:27:d4:e1:97:60:6e:d6:cd:fa:6d:ba:cb:b1:2c:20:
         1a:84:a6:f0:57:45:c9:5a:a6:d4:a1:c9:10:f0:77:2a:df:5f:
         7f:1f:90:c6
-----BEGIN CERTIFICATE-----
MIIEFjCCAv6gAwIBAgIEEAABBTANBgkqhkiG9w0BAQUFADBEMQswCQYDVQQGEwJE
RTEPMA0GA1UECAwGSGVzc2VuMRQwEgYDVQQKDAtwcml2YWN5aWRlYTEOMAwGA1UE
AwwFQ0EwMDEwHhcNMTYwNDI2MTQ0NTQzWhcNMTcwNDI2MTQ0NTQzWjBEMQ4wDAYD
VQQLEwVsb2NhbDEOMAwGA1UEAxMFY29ybnkxIjAgBgkqhkiG9w0BCQEWE2Nvcm55
QGNvcm5lbGludXguZGUwggEiMA0GCSqGSIb3DQEBAQUAA4IBDwAwggEKAoIBAQCj
bYVp2I58YfieqTuHHaQt4Eal+dM7PvIcsF9g3Oc5zTPyMhGqHyvAUP15VJq1GiJJ
UNLYTESxM7JVbFTk97LwjfUL1OT0X9xv0rLvXPu/fEQqcrwBRW1NzK18+ThN/05Q
Om0xal5zVS7zTMG27nB+CzEHzgrE/Mk2eIuckiGbaAT7EMieTroHh8QQvYwL3m1C
dBpybEnL0R7yIoEkpYMt0O51/R4TNZb5LAE5LAF9Udvs66Y6zM7taDPNmL16Ppsx
9h10jcDhnXKOmfjGBf/H3tCU31EQmycQO5BgAv98GfuMHX7Yx3oO50h+5edwxpkL
hnVutbWp6wkKW4aB/Bx1AgMBAAGjggEOMIIBCjALBgNVHQ8EBAMCBaAwCQYDVR0T
BAIwADARBglghkgBhvhCAQEEBAMCBkAwMwYJYIZIAYb4QgENBCYWJE9wZW5TU0wg
R2VuZXJhdGVkIFNlcnZlciBDZXJ0aWZpY2F0ZTAdBgNVHQ4EFgQUh2UrUGT8YyqO
dNx3lbkn7l+lk4QwdAYDVR0jBG0wa4AU9KfAzJFGr2TzkfIn+Miyb4qHMnOhSKRG
MEQxCzAJBgNVBAYTAkRFMQ8wDQYDVQQIDAZIZXNzZW4xFDASBgNVBAoMC3ByaXZh
Y3lpZGVhMQ4wDAYDVQQDDAVDQTAwMYIJAPvI66yDzRIHMBMGA1UdJQQMMAoGCCsG
AQUFBwMBMA0GCSqGSIb3DQEBBQUAA4IBAQBg87pEbGm+fYlB19i7oDicl4m2L+n/
Xh8hJXw7RYSD+9B1aaHFqRZkdnqYRrESwPVyNp3AOv5bmPYSCRIRvfvlRXBS/ueI
ADjiaNT8x2/kLlkWg1LrcdOjaYtWSsxv9brNTPkc624HBIAZaPD3KXeky2rOHpLj
ZS0uv/vofFbJLKj6D0Zl7jZ4+jbCskfYv1oRHNKpAISFn/Y6tDvZ/hcQ7ljvb+wX
ALN61h6wPqOhvbLckj3NXfHUrkrM/WlRjfVWwAlhke296si9Q496Oonbf3YLLxha
RzduVOcn1OGXYG7WzfptusuxLCAahKbwV0XJWqbUockQ8Hcq319/H5DG
-----END CERTIFICATE-----
