Certificate:
    Data:
        Version: 3 (0x2)
        Serial Number: 268435722 (0x1000010a)
    Signature Algorithm: sha1WithRSAEncryption
        Issuer: C=DE, ST=Hessen, O=privacyidea, CN=CA001
        Validity
            Not Before: Apr 26 15:26:15 2016 GMT
            Not After : Apr 26 15:26:15 2017 GMT
        Subject: OU=local, CN=corny/emailAddress=corny@cornelinux.de
        Subject Public Key Info:
            Public Key Algorithm: rsaEncryption
                Public-Key: (2048 bit)
                Modulus:
                    00:b4:bb:f9:ec:33:5a:4d:64:65:4b:ae:e7:ce:a2:
                    4e:8e:80:b5:41:2c:c5:ea:ff:58:48:c3:e5:0a:fa:
                    18:16:e7:7f:81:46:b9:cd:11:85:fa:28:13:0a:be:
                    69:d1:98:60:75:50:c4:d4:a4:39:3d:5d:f6:4a:b5:
                    af:f2:db:a3:b6:f1:4c:7f:7c:77:08:df:36:97:31:
                    c0:1e:39:bb:f6:5e:88:f5:88:54:b2:f7:05:35:95:
                    99:88:ec:33:04:3f:96:46:7e:3e:ac:05:9b:f1:8a:
                    68:ff:76:93:01:5e:16:74:96:cd:ee:bd:85:04:86:
                    4b:9a:15:80:96:f1:16:69:e8:b2:d2:fb:a2:c2:1d:
                    03:bf:7a:d5:69:83:c2:4d:34:2c:e7:11:6b:7c:4a:
                    97:7d:ed:bc:44:4a:d5:9c:96:50:71:63:28:7e:80:
                    50:97:5f:d0:ad:89:70:bb:71:ef:d2:8d:04:6d:85:
                    33:06:87:df:b3:0a:1f:77:ed:55:0d:9e:7e:4f:1e:
                    49:0f:cd:b3:a8:eb:c0:32:5f:92:9a:b0:be:28:5a:
                    ff:f8:31:62:e4:42:dc:d3:59:7c:66:8c:f8:a3:5c:
                    73:d7:3a:04:f3:9d:a5:e5:bb:2d:c7:45:e4:94:7d:
                    13:f7:3d:c5:7d:4c:3d:82:7c:9d:89:b1:24:44:e7:
                    de:2b
                Exponent: 65537 (0x10001)
        X509v3 extensions:
            X509v3 Key Usage: 
                Digital Signature, Key Encipherment
            X509v3 Basic Constraints: 
                CA:FALSE
            Netscape Cert Type: 
                SSL Server
            Netscape Comment: 
                OpenSSL Generated Server Certificate
            X509v3 Subject Key Identifier: 
                EC:59:02:C3:11:D7:1A:77:02:91:BD:94:6D:44:FA:AA:0F:1E:92:D6
            X509v3 Authority Key Identifier: 
                keyid:F4:A7:C0:CC:91:46:AF:64:F3:91:F2:27:F8:C8:B2:6F:8A:87:32:73
                DirName:/C=DE/ST=Hessen/O=privacyidea/CN=CA001
                serial:FB:C8:EB:AC:83:CD:12:07

            X509v3 Extended Key Usage: 
                TLS Web Server Authentication
    Signature Algorithm: sha1WithRSAEncryption
         5f:a3:d2:7c:a6:cb:7d:ca:3a:e7:e4:bf:43:3d:f3:92:6e:82:
         87:d9:90:90:ec:9c:e1:f0:24:10:82:c7:c3:72:fe:6e:86:49:
         c8:42:85:92:74:0e:b4:81:26:2f:d8:20:0b:42:83:9d:36:b5:
         fa:1e:15:aa:0d:b7:7c:7e:44:e6:5d:aa:df:64:b2:73:77:d5:
         35:d8:0b:94:41:c1:9e:c6:50:40:06:73:ba:d4:c2:03:62:59:
         12:4e:f3:a4:64:cc:ae:a6:8d:0c:04:54:66:7b:85:00:f1:54:
         91:77:9d:12:4a:92:95:a0:55:2b:73:80:a1:d5:cc:e0:3a:40:
         8d:5b:c2:69:ec:01:19:3d:d0:b0:38:ae:64:c5:70:cf:cd:a0:
         53:b1:a4:4d:37:cc:fa:72:40:e5:82:b5:dc:48:1a:3c:52:13:
         cb:d0:bf:ca:5b:2a:5c:1b:4e:91:dd:0d:77:46:0b:f0:0c:da:
         6b:c2:95:36:4d:7d:9c:3b:6a:b1:fb:81:19:5c:ec:d3:97:9a:
         e1:fd:19:94:ba:04:b5:d8:a9:59:9f:12:47:69:94:39:32:17:
         2b:3a:d4:0d:c4:00:05:65:90:08:2a:7f:25:d7:6b:e9:d4:d6:
         85:3e:2d:15:cc:01:b6:55:85:68:e9:2e:be:28:c1:58:70:c6:
         e6:27:e2:b5
-----BEGIN CERTIFICATE-----
MIIEFjCCAv6gAwIBAgIEEAABCjANBgkqhkiG9w0BAQUFADBEMQswCQYDVQQGEwJE
RTEPMA0GA1UECAwGSGVzc2VuMRQwEgYDVQQKDAtwcml2YWN5aWRlYTEOMAwGA1UE
AwwFQ0EwMDEwHhcNMTYwNDI2MTUyNjE1WhcNMTcwNDI2MTUyNjE1WjBEMQ4wDAYD
VQQLEwVsb2NhbDEOMAwGA1UEAxMFY29ybnkxIjAgBgkqhkiG9w0BCQEWE2Nvcm55
QGNvcm5lbGludXguZGUwggEiMA0GCSqGSIb3DQEBAQUAA4IBDwAwggEKAoIBAQC0
u/nsM1pNZGVLrufOok6OgLVBLMXq/1hIw+UK+hgW53+BRrnNEYX6KBMKvmnRmGB1
UMTUpDk9XfZKta/y26O28Ux/fHcI3zaXMcAeObv2Xoj1iFSy9wU1lZmI7DMEP5ZG
fj6sBZvximj/dpMBXhZ0ls3uvYUEhkuaFYCW8RZp6LLS+6LCHQO/etVpg8JNNCzn
EWt8Spd97bxEStWcllBxYyh+gFCXX9CtiXC7ce/SjQRthTMGh9+zCh937VUNnn5P
HkkPzbOo68AyX5KasL4oWv/4MWLkQtzTWXxmjPijXHPXOgTznaXluy3HReSUfRP3
PcV9TD2CfJ2JsSRE594rAgMBAAGjggEOMIIBCjALBgNVHQ8EBAMCBaAwCQYDVR0T
BAIwADARBglghkgBhvhCAQEEBAMCBkAwMwYJYIZIAYb4QgENBCYWJE9wZW5TU0wg
R2VuZXJhdGVkIFNlcnZlciBDZXJ0aWZpY2F0ZTAdBgNVHQ4EFgQU7FkCwxHXGncC
kb2UbUT6qg8ektYwdAYDVR0jBG0wa4AU9KfAzJFGr2TzkfIn+Miyb4qHMnOhSKRG
MEQxCzAJBgNVBAYTAkRFMQ8wDQYDVQQIDAZIZXNzZW4xFDASBgNVBAoMC3ByaXZh
Y3lpZGVhMQ4wDAYDVQQDDAVDQTAwMYIJAPvI66yDzRIHMBMGA1UdJQQMMAoGCCsG
AQUFBwMBMA0GCSqGSIb3DQEBBQUAA4IBAQBfo9J8pst9yjrn5L9DPfOSboKH2ZCQ
7Jzh8CQQgsfDcv5uhknIQoWSdA60gSYv2CALQoOdNrX6HhWqDbd8fkTmXarfZLJz
d9U12AuUQcGexlBABnO61MIDYlkSTvOkZMyupo0MBFRme4UA8VSRd50SSpKVoFUr
c4Ch1czgOkCNW8Jp7AEZPdCwOK5kxXDPzaBTsaRNN8z6ckDlgrXcSBo8UhPL0L/K
WypcG06R3Q13RgvwDNprwpU2TX2cO2qx+4EZXOzTl5rh/RmUugS12KlZnxJHaZQ5
MhcrOtQNxAAFZZAIKn8l12vp1NaFPi0VzAG2VYVo6S6+KMFYcMbmJ+K1
-----END CERTIFICATE-----
