Certificate:
    Data:
        Version: 3 (0x2)
        Serial Number: 268435699 (0x100000f3)
    Signature Algorithm: sha1WithRSAEncryption
        Issuer: C=DE, ST=Hessen, O=privacyidea, CN=CA001
        Validity
            Not Before: Feb 23 15:35:06 2017 GMT
            Not After : Feb 23 15:35:06 2018 GMT
        Subject: CN=Steve Test/emailAddress=steve@openssl.org
        Subject Public Key Info:
            Public Key Algorithm: rsaEncryption
                Public-Key: (2048 bit)
                Modulus:
                    00:d2:81:89:20:51:48:0f:73:f4:11:32:24:d5:1f:
                    1c:fd:5c:f5:b6:e6:c5:f0:52:81:dc:d2:af:66:4a:
                    7c:93:31:61:5c:af:d1:6d:06:70:03:60:7c:72:0c:
                    88:dd:49:cd:9e:02:6c:d2:5a:d7:53:0f:f3:da:be:
                    69:64:b5:0f:0c:00:e3:b3:50:47:a3:b3:9b:ba:13:
                    50:d6:58:5a:4b:ab:39:e0:11:ca:0a:27:67:03:78:
                    22:66:6d:92:1e:1b:5c:49:ae:e6:6b:d1:8e:3b:9d:
                    06:d3:c6:ac:4d:53:43:10:ab:e8:96:c1:87:82:97:
                    99:8f:20:d3:99:12:37:31:84:e1:8a:ff:29:03:5f:
                    22:90:3e:7f:9b:e0:20:c1:ad:dc:ae:4c:39:1a:31:
                    96:17:02:8c:b2:d9:b4:0d:20:12:9b:7d:86:54:fd:
                    33:fd:c1:2a:62:46:f8:60:96:cf:6e:01:6f:22:df:
                    13:47:e7:97:ec:05:72:23:a3:62:f8:fa:ef:ac:9c:
                    72:f0:37:cb:2f:37:cf:90:a8:27:51:86:c6:d7:78:
                    08:8f:7e:25:a2:15:70:a2:fb:1c:b6:15:5e:a0:97:
                    8b:81:4c:09:28:8a:27:3b:94:bc:71:db:5b:71:37:
                    9a:2b:16:e0:6f:b5:c9:f5:4b:4f:20:ba:65:cf:af:
                    ad:ad
                Exponent: 65537 (0x10001)
        X509v3 extensions:
            X509v3 Key Usage: 
                Digital Signature, Key Encipherment
            X509v3 Basic Constraints: 
                CA:FALSE
            Netscape Cert Type: 
                SSL Server
            Netscape Comment: 
                OpenSSL Generated Server Certificate
            X509v3 Subject Key Identifier: 
                E5:25:6D:3E:AF:0D:DD:3F:4C:F2:45:19:39:D5:14:DB:7E:9C:C0:AD
            X509v3 Authority Key Identifier: 
                keyid:F4:A7:C0:CC:91:46:AF:64:F3:91:F2:27:F8:C8:B2:6F:8A:87:32:73
                DirName:/C=DE/ST=Hessen/O=privacyidea/CN=CA001
                serial:FB:C8:EB:AC:83:CD:12:07

            X509v3 Extended Key Usage: 
                TLS Web Server Authentication
    Signature Algorithm: sha1WithRSAEncryption
         45:5b:02:84:fb:69:a7:0e:d2:fc:c7:9f:58:80:85:bd:9f:3b:
         19:8a:c1:8f:af:83:93:52:42:a9:a2:91:4f:e2:b9:c9:01:35:
         cf:0c:01:7d:d9:29:e5:b1:6e:8a:93:1c:4c:f9:67:4d:14:b4:
         38:97:48:2d:5b:33:56:f2:8b:71:39:0c:51:05:0c:48:00:c3:
         e9:bd:a3:60:98:90:b7:1d:ab:5d:c8:18:e8:b6:2c:6a:be:48:
         9f:a0:cf:b6:99:b9:29:41:b8:75:93:1c:30:20:f6:b1:d5:1e:
         19:da:35:47:9d:60:2c:07:cb:4c:69:db:6d:64:7e:ef:da:58:
         f8:3e:d4:07:5d:8e:16:95:97:f9:f2:f8:03:19:d7:82:df:78:
         c2:f5:06:2c:cc:e3:e6:a4:94:47:4a:03:f4:83:9b:2e:0f:cc:
         0a:04:09:4f:69:63:f5:a8:2b:e7:3e:56:02:a8:8d:2e:55:c0:
         4e:2a:56:6e:69:2f:f1:d3:38:48:a6:b5:14:1e:e7:6c:6e:71:
         79:c1:bd:7e:f5:73:e5:54:f0:84:c2:7e:57:95:0f:a0:16:ff:
         8f:0c:71:c1:d9:87:22:23:12:52:bc:73:d0:83:35:d3:97:40:
         48:81:15:0c:b0:24:ab:25:5e:a9:e3:57:38:1a:01:9f:ed:26:
         ec:d9:e1:db
-----BEGIN CERTIFICATE-----
MIIECTCCAvGgAwIBAgIEEAAA8zANBgkqhkiG9w0BAQUFADBEMQswCQYDVQQGEwJE
RTEPMA0GA1UECAwGSGVzc2VuMRQwEgYDVQQKDAtwcml2YWN5aWRlYTEOMAwGA1UE
AwwFQ0EwMDEwHhcNMTcwMjIzMTUzNTA2WhcNMTgwMjIzMTUzNTA2WjA3MRMwEQYD
VQQDDApTdGV2ZSBUZXN0MSAwHgYJKoZIhvcNAQkBFhFzdGV2ZUBvcGVuc3NsLm9y
ZzCCASIwDQYJKoZIhvcNAQEBBQADggEPADCCAQoCggEBANKBiSBRSA9z9BEyJNUf
HP1c9bbmxfBSgdzSr2ZKfJMxYVyv0W0GcANgfHIMiN1JzZ4CbNJa11MP89q+aWS1
DwwA47NQR6Ozm7oTUNZYWkurOeARygonZwN4ImZtkh4bXEmu5mvRjjudBtPGrE1T
QxCr6JbBh4KXmY8g05kSNzGE4Yr/KQNfIpA+f5vgIMGt3K5MORoxlhcCjLLZtA0g
Ept9hlT9M/3BKmJG+GCWz24BbyLfE0fnl+wFciOjYvj676yccvA3yy83z5CoJ1GG
xtd4CI9+JaIVcKL7HLYVXqCXi4FMCSiKJzuUvHHbW3E3misW4G+1yfVLTyC6Zc+v
ra0CAwEAAaOCAQ4wggEKMAsGA1UdDwQEAwIFoDAJBgNVHRMEAjAAMBEGCWCGSAGG
+EIBAQQEAwIGQDAzBglghkgBhvhCAQ0EJhYkT3BlblNTTCBHZW5lcmF0ZWQgU2Vy
dmVyIENlcnRpZmljYXRlMB0GA1UdDgQWBBTlJW0+rw3dP0zyRRk51RTbfpzArTB0
BgNVHSMEbTBrgBT0p8DMkUavZPOR8if4yLJviocyc6FIpEYwRDELMAkGA1UEBhMC
REUxDzANBgNVBAgMBkhlc3NlbjEUMBIGA1UECgwLcHJpdmFjeWlkZWExDjAMBgNV
BAMMBUNBMDAxggkA+8jrrIPNEgcwEwYDVR0lBAwwCgYIKwYBBQUHAwEwDQYJKoZI
hvcNAQEFBQADggEBAEVbAoT7aacO0vzHn1iAhb2fOxmKwY+vg5NSQqmikU/iuckB
Nc8MAX3ZKeWxboqTHEz5Z00UtDiXSC1bM1byi3E5DFEFDEgAw+m9o2CYkLcdq13I
GOi2LGq+SJ+gz7aZuSlBuHWTHDAg9rHVHhnaNUedYCwHy0xp221kfu/aWPg+1Add
jhaVl/ny+AMZ14LfeML1BizM4+aklEdKA/SDmy4PzAoECU9pY/WoK+c+VgKojS5V
wE4qVm5pL/HTOEimtRQe52xucXnBvX71c+VU8ITCfleVD6AW/48MccHZhyIjElK8
c9CDNdOXQEiBFQywJKslXqnjVzgaAZ/tJuzZ4ds=
-----END CERTIFICATE-----
