Certificate:
    Data:
        Version: 3 (0x2)
        Serial Number: 268435725 (0x1000010d)
    Signature Algorithm: sha1WithRSAEncryption
        Issuer: C=DE, ST=Hessen, O=privacyidea, CN=CA001
        Validity
            Not Before: Apr 26 15:37:38 2016 GMT
            Not After : Apr 26 15:37:38 2017 GMT
        Subject: OU=local, CN=corny/emailAddress=corny@cornelinux.de
        Subject Public Key Info:
            Public Key Algorithm: rsaEncryption
                Public-Key: (2048 bit)
                Modulus:
                    00:b7:03:72:f5:bf:0c:e3:3e:5c:71:f3:67:69:4b:
                    ca:d0:4e:3b:3a:3d:5c:93:71:00:57:4f:56:d1:1a:
                    69:86:44:9a:a5:c8:80:fb:87:73:d9:ff:f6:10:a1:
                    45:d0:03:2d:c0:5b:98:8f:ca:22:63:02:b7:bc:fb:
                    c8:5f:38:d0:82:4d:9f:7f:55:ce:db:6b:cd:b3:6e:
                    26:d0:2f:ee:dd:51:50:45:f8:18:81:30:69:a2:f0:
                    c9:fa:50:bd:d8:b0:fe:d6:3b:fb:7f:a6:24:a5:4a:
                    6e:5c:62:28:a9:6b:58:de:81:6d:b2:f3:1a:d7:ac:
                    77:c6:df:46:65:af:6b:d1:8a:b0:e0:da:ec:6a:df:
                    78:64:af:ce:a9:e0:84:2d:63:b5:e7:c9:dc:9f:1b:
                    e4:40:42:b2:d1:14:95:16:0f:63:f5:00:3d:28:87:
                    30:04:42:a8:4d:88:ee:9b:c8:e7:d3:a6:4c:6d:de:
                    9d:d8:2c:89:29:a0:59:17:cb:fc:75:41:ea:0c:63:
                    e5:b7:c3:6e:c0:34:5d:17:9c:82:6f:03:2c:2d:bd:
                    96:90:8a:0f:a4:51:d7:19:1e:77:13:80:bb:e3:4a:
                    8d:67:ef:f2:e1:42:ff:61:9b:3a:da:14:67:05:85:
                    37:15:f4:ef:01:bf:c1:43:81:72:4e:08:b7:b2:f6:
                    d8:67
                Exponent: 65537 (0x10001)
        X509v3 extensions:
            X509v3 Key Usage: 
                Digital Signature, Key Encipherment
            X509v3 Basic Constraints: 
                CA:FALSE
            Netscape Cert Type: 
                SSL Server
            Netscape Comment: 
                OpenSSL Generated Server Certificate
            X509v3 Subject Key Identifier: 
                EC:57:94:D3:66:9F:07:6D:12:CA:E1:B6:2E:E6:76:57:30:92:D7:39
            X509v3 Authority Key Identifier: 
                keyid:F4:A7:C0:CC:91:46:AF:64:F3:91:F2:27:F8:C8:B2:6F:8A:87:32:73
                DirName:/C=DE/ST=Hessen/O=privacyidea/CN=CA001
                serial:FB:C8:EB:AC:83:CD:12:07

            X509v3 Extended Key Usage: 
                TLS Web Server Authentication
    Signature Algorithm: sha1WithRSAEncryption
         82:9c:8e:22:cd:d1:71:88:ce:92:2b:21:a3:2d:b1:31:62:31:
         9a:e0:18:72:84:69:15:4b:94:13:27:54:27:6f:53:9f:33:87:
         a9:58:4b:14:44:14:4d:89:a2:72:cb:6b:db:ba:5d:3c:39:8a:
         c8:ed:aa:98:da:87:7e:40:35:5c:37:66:c7:c6:3b:92:68:18:
         44:f8:39:39:99:3e:d9:74:c7:3b:b7:47:ae:46:8f:69:1e:0b:
         ba:01:10:53:7d:07:e0:e7:bd:53:2a:28:5f:97:4c:64:f9:0f:
         56:96:66:0e:ef:5d:9c:9d:f9:65:4c:c9:33:7d:17:f6:77:f7:
         ea:c7:41:46:3c:f3:6f:4b:d4:f9:5c:dc:87:1f:f8:09:9a:71:
         a0:ae:44:c0:29:8b:7f:02:a6:3d:cc:56:61:a1:27:9f:07:9a:
         73:a5:8c:aa:ab:47:ca:e6:60:19:2b:1b:84:b6:00:90:ca:36:
         ae:3d:72:aa:91:9f:4c:66:f7:eb:6d:16:4a:f4:89:80:fb:e8:
         38:91:20:69:4f:40:13:8f:dd:7c:b2:5e:ff:75:b6:20:12:41:
         39:f7:f5:e4:84:f7:9a:c6:24:c0:b6:2f:9a:61:b0:58:f2:e3:
         b8:72:3f:b6:fd:00:7a:31:58:76:2d:dc:3e:a7:42:0c:c0:82:
         9b:ef:a1:71
-----BEGIN CERTIFICATE-----
MIIEFjCCAv6gAwIBAgIEEAABDTANBgkqhkiG9w0BAQUFADBEMQswCQYDVQQGEwJE
RTEPMA0GA1UECAwGSGVzc2VuMRQwEgYDVQQKDAtwcml2YWN5aWRlYTEOMAwGA1UE
AwwFQ0EwMDEwHhcNMTYwNDI2MTUzNzM4WhcNMTcwNDI2MTUzNzM4WjBEMQ4wDAYD
VQQLEwVsb2NhbDEOMAwGA1UEAxMFY29ybnkxIjAgBgkqhkiG9w0BCQEWE2Nvcm55
QGNvcm5lbGludXguZGUwggEiMA0GCSqGSIb3DQEBAQUAA4IBDwAwggEKAoIBAQC3
A3L1vwzjPlxx82dpS8rQTjs6PVyTcQBXT1bRGmmGRJqlyID7h3PZ//YQoUXQAy3A
W5iPyiJjAre8+8hfONCCTZ9/Vc7ba82zbibQL+7dUVBF+BiBMGmi8Mn6UL3YsP7W
O/t/piSlSm5cYiipa1jegW2y8xrXrHfG30Zlr2vRirDg2uxq33hkr86p4IQtY7Xn
ydyfG+RAQrLRFJUWD2P1AD0ohzAEQqhNiO6byOfTpkxt3p3YLIkpoFkXy/x1QeoM
Y+W3w27ANF0XnIJvAywtvZaQig+kUdcZHncTgLvjSo1n7/LhQv9hmzraFGcFhTcV
9O8Bv8FDgXJOCLey9thnAgMBAAGjggEOMIIBCjALBgNVHQ8EBAMCBaAwCQYDVR0T
BAIwADARBglghkgBhvhCAQEEBAMCBkAwMwYJYIZIAYb4QgENBCYWJE9wZW5TU0wg
R2VuZXJhdGVkIFNlcnZlciBDZXJ0aWZpY2F0ZTAdBgNVHQ4EFgQU7FeU02afB20S
yuG2LuZ2VzCS1zkwdAYDVR0jBG0wa4AU9KfAzJFGr2TzkfIn+Miyb4qHMnOhSKRG
MEQxCzAJBgNVBAYTAkRFMQ8wDQYDVQQIDAZIZXNzZW4xFDASBgNVBAoMC3ByaXZh
Y3lpZGVhMQ4wDAYDVQQDDAVDQTAwMYIJAPvI66yDzRIHMBMGA1UdJQQMMAoGCCsG
AQUFBwMBMA0GCSqGSIb3DQEBBQUAA4IBAQCCnI4izdFxiM6SKyGjLbExYjGa4Bhy
hGkVS5QTJ1Qnb1OfM4epWEsURBRNiaJyy2vbul08OYrI7aqY2od+QDVcN2bHxjuS
aBhE+Dk5mT7ZdMc7t0euRo9pHgu6ARBTfQfg571TKihfl0xk+Q9WlmYO712cnfll
TMkzfRf2d/fqx0FGPPNvS9T5XNyHH/gJmnGgrkTAKYt/AqY9zFZhoSefB5pzpYyq
q0fK5mAZKxuEtgCQyjauPXKqkZ9MZvfrbRZK9ImA++g4kSBpT0ATj918sl7/dbYg
EkE59/XkhPeaxiTAti+aYbBY8uO4cj+2/QB6MVh2Ldw+p0IMwIKb76Fx
-----END CERTIFICATE-----
