Certificate:
    Data:
        Version: 3 (0x2)
        Serial Number: 268435721 (0x10000109)
    Signature Algorithm: sha1WithRSAEncryption
        Issuer: C=DE, ST=Hessen, O=privacyidea, CN=CA001
        Validity
            Not Before: Apr 26 15:07:09 2016 GMT
            Not After : Apr 26 15:07:09 2017 GMT
        Subject: OU=local, CN=corny/emailAddress=corny@cornelinux.de
        Subject Public Key Info:
            Public Key Algorithm: rsaEncryption
                Public-Key: (2048 bit)
                Modulus:
                    00:ae:74:41:6f:41:91:e4:e9:0b:d7:f9:d4:f2:fa:
                    98:16:c4:30:c6:1e:fa:0f:1d:6c:0a:f6:55:e1:d2:
                    6d:85:59:1c:4f:ab:3e:ae:d4:89:4e:4a:e0:c8:48:
                    fd:c6:31:c3:10:3a:76:55:42:21:75:52:3c:9d:da:
                    b1:d8:af:ae:b4:79:ef:14:71:6e:88:94:f4:77:b9:
                    e2:2e:2b:2c:78:b3:9f:59:fe:fc:20:7b:67:dc:0c:
                    3a:05:af:c4:02:61:81:fc:0d:58:5c:be:cc:3e:94:
                    d5:4e:8a:80:1d:f8:f9:28:92:69:a9:1a:6f:70:06:
                    4b:c9:b6:be:dd:7f:6a:8e:e4:14:67:01:47:a7:68:
                    7e:b8:30:4a:a7:a3:04:29:db:bc:b8:89:ee:eb:ea:
                    bf:b5:34:86:0a:c5:9f:72:01:15:27:0d:10:9a:6d:
                    e1:dd:38:d5:c2:ed:d0:33:1b:4d:c7:a7:94:6f:ba:
                    f3:64:ca:de:b9:c7:34:fe:74:1d:5b:d7:56:88:5e:
                    2d:41:79:ab:44:6a:9a:60:59:7c:9f:10:51:82:bc:
                    54:55:a1:82:ee:9e:bb:e2:14:93:66:59:51:9b:ac:
                    f6:b2:ce:d0:57:5f:3f:2c:24:aa:8a:52:9d:e9:5a:
                    fa:51:4d:5b:77:08:c4:f1:28:11:13:22:95:84:68:
                    b5:17
                Exponent: 65537 (0x10001)
        X509v3 extensions:
            X509v3 Key Usage: 
                Digital Signature, Key Encipherment
            X509v3 Basic Constraints: 
                CA:FALSE
            Netscape Cert Type: 
                SSL Server
            Netscape Comment: 
                OpenSSL Generated Server Certificate
            X509v3 Subject Key Identifier: 
                41:1E:A4:D7:81:AF:F9:7A:CE:6A:0C:C2:40:9B:D2:0E:7C:9B:50:EC
            X509v3 Authority Key Identifier: 
                keyid:F4:A7:C0:CC:91:46:AF:64:F3:91:F2:27:F8:C8:B2:6F:8A:87:32:73
                DirName:/C=DE/ST=Hessen/O=privacyidea/CN=CA001
                serial:FB:C8:EB:AC:83:CD:12:07

            X509v3 Extended Key Usage: 
                TLS Web Server Authentication
    Signature Algorithm: sha1WithRSAEncryption
         0e:4c:53:a6:41:0e:fb:41:bb:02:6b:c9:d4:f1:e3:ad:d5:63:
         98:74:ab:88:91:18:10:22:6f:11:83:57:13:92:0b:60:d0:bf:
         4a:d4:0c:2a:23:1b:81:9c:0d:b7:c0:01:b3:55:ce:15:6d:b8:
         b9:96:44:78:cb:94:32:b1:11:19:21:6a:3c:09:65:10:9b:e9:
         18:87:ff:11:70:34:37:a6:de:9b:d7:13:74:d7:7f:31:a3:d4:
         a3:3e:3d:b2:27:a8:87:80:57:f5:23:8b:59:fb:42:62:bc:64:
         cb:7d:89:f2:12:d9:70:92:c1:48:94:b0:4f:80:d2:44:7c:e1:
         ea:37:2a:1a:c4:3f:ae:2a:da:b1:81:39:1a:cb:9a:11:31:07:
         5d:2f:50:be:07:d6:c0:eb:15:d6:26:d8:06:d4:1a:d8:00:88:
         78:cb:a8:7e:c7:a7:a5:60:ed:01:e5:05:a4:94:d3:be:42:0d:
         d9:bd:71:66:ed:49:51:f5:70:e4:81:27:f5:04:f8:6b:0f:aa:
         27:f9:1b:7b:e2:eb:38:dd:bd:38:98:75:95:06:4f:c1:3c:ef:
         89:1b:c7:d2:ae:72:08:b3:cc:b2:41:c4:e7:45:01:4d:b4:3c:
         7f:57:9f:3a:ce:a3:02:34:0a:b1:29:36:82:04:da:19:a4:fd:
         13:1a:ff:2a
-----BEGIN CERTIFICATE-----
MIIEFjCCAv6gAwIBAgIEEAABCTANBgkqhkiG9w0BAQUFADBEMQswCQYDVQQGEwJE
RTEPMA0GA1UECAwGSGVzc2VuMRQwEgYDVQQKDAtwcml2YWN5aWRlYTEOMAwGA1UE
AwwFQ0EwMDEwHhcNMTYwNDI2MTUwNzA5WhcNMTcwNDI2MTUwNzA5WjBEMQ4wDAYD
VQQLEwVsb2NhbDEOMAwGA1UEAxMFY29ybnkxIjAgBgkqhkiG9w0BCQEWE2Nvcm55
QGNvcm5lbGludXguZGUwggEiMA0GCSqGSIb3DQEBAQUAA4IBDwAwggEKAoIBAQCu
dEFvQZHk6QvX+dTy+pgWxDDGHvoPHWwK9lXh0m2FWRxPqz6u1IlOSuDISP3GMcMQ
OnZVQiF1Ujyd2rHYr660ee8UcW6IlPR3ueIuKyx4s59Z/vwge2fcDDoFr8QCYYH8
DVhcvsw+lNVOioAd+PkokmmpGm9wBkvJtr7df2qO5BRnAUenaH64MEqnowQp27y4
ie7r6r+1NIYKxZ9yARUnDRCabeHdONXC7dAzG03Hp5RvuvNkyt65xzT+dB1b11aI
Xi1BeatEappgWXyfEFGCvFRVoYLunrviFJNmWVGbrPayztBXXz8sJKqKUp3pWvpR
TVt3CMTxKBETIpWEaLUXAgMBAAGjggEOMIIBCjALBgNVHQ8EBAMCBaAwCQYDVR0T
BAIwADARBglghkgBhvhCAQEEBAMCBkAwMwYJYIZIAYb4QgENBCYWJE9wZW5TU0wg
R2VuZXJhdGVkIFNlcnZlciBDZXJ0aWZpY2F0ZTAdBgNVHQ4EFgQUQR6k14Gv+XrO
agzCQJvSDnybUOwwdAYDVR0jBG0wa4AU9KfAzJFGr2TzkfIn+Miyb4qHMnOhSKRG
MEQxCzAJBgNVBAYTAkRFMQ8wDQYDVQQIDAZIZXNzZW4xFDASBgNVBAoMC3ByaXZh
Y3lpZGVhMQ4wDAYDVQQDDAVDQTAwMYIJAPvI66yDzRIHMBMGA1UdJQQMMAoGCCsG
AQUFBwMBMA0GCSqGSIb3DQEBBQUAA4IBAQAOTFOmQQ77QbsCa8nU8eOt1WOYdKuI
kRgQIm8Rg1cTkgtg0L9K1AwqIxuBnA23wAGzVc4Vbbi5lkR4y5QysREZIWo8CWUQ
m+kYh/8RcDQ3pt6b1xN0138xo9SjPj2yJ6iHgFf1I4tZ+0JivGTLfYnyEtlwksFI
lLBPgNJEfOHqNyoaxD+uKtqxgTkay5oRMQddL1C+B9bA6xXWJtgG1BrYAIh4y6h+
x6elYO0B5QWklNO+Qg3ZvXFm7UlR9XDkgSf1BPhrD6on+Rt74us43b04mHWVBk/B
PO+JG8fSrnIIs8yyQcTnRQFNtDx/V586zqMCNAqxKTaCBNoZpP0TGv8q
-----END CERTIFICATE-----
