Certificate:
    Data:
        Version: 3 (0x2)
        Serial Number: 268435680 (0x100000e0)
    Signature Algorithm: sha256WithRSAEncryption
        Issuer: C=DE, ST=Hessen, O=privacyidea, CN=CA001
        Validity
            Not Before: Aug 30 16:06:36 2018 GMT
            Not After : Aug 30 16:06:36 2019 GMT
        Subject: OU=realm1, CN=cornelius/emailAddress=user@localhost.localdomain
        Subject Public Key Info:
            Public Key Algorithm: rsaEncryption
                Public-Key: (2048 bit)
                Modulus:
                    00:bc:ca:25:e6:94:aa:08:81:06:c4:13:35:45:78:
                    c7:49:ce:3d:c0:0a:43:bd:b3:8a:b8:33:6a:04:01:
                    75:43:6d:61:76:95:9f:4f:74:ba:e5:41:e1:2e:21:
                    5f:43:b0:88:91:09:49:65:c5:92:d0:9a:18:28:52:
                    22:0b:f4:38:58:22:83:26:d8:b1:41:2a:a6:98:d5:
                    55:25:b0:b0:f3:bd:7c:31:3d:87:fc:b4:5d:4d:af:
                    eb:1d:70:7b:07:da:69:c2:d0:d7:3f:b7:24:2b:e7:
                    e4:07:44:7c:e6:97:83:f0:5c:de:b8:83:6e:d4:54:
                    a3:b0:1a:61:f1:ad:22:a1:4a:eb:df:84:b5:b2:77:
                    19:09:23:f0:61:9d:eb:21:3c:74:97:bf:8a:f1:18:
                    27:9b:92:15:65:8f:d7:9c:74:e8:d3:ba:0d:73:58:
                    c2:1b:e6:0c:5c:0d:4e:2a:d8:aa:34:24:ce:17:47:
                    35:21:b9:01:7b:d8:78:8c:5c:84:9c:dd:18:20:d8:
                    7e:63:25:06:c7:6d:80:ae:67:94:9d:c5:07:1c:b0:
                    04:a8:0b:e6:3f:20:9b:1e:92:e6:e8:13:1a:1b:92:
                    02:d4:e9:f4:99:e0:33:5f:f9:f0:fb:40:52:d9:69:
                    53:08:0f:b8:9b:83:c2:1e:d6:cc:51:36:5c:98:be:
                    7a:9f
                Exponent: 65537 (0x10001)
        X509v3 extensions:
            X509v3 Key Usage: 
                Digital Signature, Key Encipherment
            X509v3 Basic Constraints: 
                CA:FALSE
            Netscape Cert Type: 
                SSL Server
            Netscape Comment: 
                OpenSSL Generated Server Certificate
            X509v3 Subject Key Identifier: 
                C0:49:E6:BC:BC:AA:00:37:DA:4A:FA:C3:07:F4:5B:06:A0:97:A2:D2
            X509v3 Authority Key Identifier: 
                keyid:F4:A7:C0:CC:91:46:AF:64:F3:91:F2:27:F8:C8:B2:6F:8A:87:32:73
                DirName:/C=DE/ST=Hessen/O=privacyidea/CN=CA001
                serial:FB:C8:EB:AC:83:CD:12:07

            X509v3 Extended Key Usage: 
                TLS Web Server Authentication
    Signature Algorithm: sha256WithRSAEncryption
         48:6e:b6:9f:7a:97:ed:c6:48:d9:f3:a1:ec:71:29:80:8c:46:
         1b:a1:28:72:ab:34:18:ec:4d:71:df:1f:d2:2c:95:ff:74:c1:
         37:59:8d:ee:15:56:5f:5a:77:c3:94:45:c6:e9:80:99:96:d8:
         70:27:91:02:d2:6b:2f:c5:3f:40:01:10:86:de:26:3f:16:7a:
         48:43:62:81:77:eb:50:2b:6e:59:ef:72:f9:fe:16:c2:28:5d:
         a1:60:d6:8b:38:14:4f:41:2c:52:7a:b5:eb:58:ea:52:e5:61:
         d1:e6:85:ab:0d:28:44:12:cc:0c:5b:04:f9:9a:b2:b7:2c:fc:
         92:a3:50:f5:86:02:d2:10:5f:ee:7e:54:ba:c1:bf:07:2c:33:
         cc:73:31:85:b3:c6:d2:bf:80:ee:22:58:82:90:cc:a0:45:80:
         a0:a0:df:f8:a8:64:af:07:c7:2a:e3:99:3a:35:eb:ef:c0:b9:
         be:52:93:ff:76:48:7a:ac:38:9d:ae:0e:e1:e5:5a:0b:5c:4f:
         81:02:b3:c4:54:40:df:9b:d9:6d:40:59:87:a7:37:b8:ab:fb:
         dd:5b:d0:f1:a5:2e:83:16:67:6c:01:05:95:c0:5e:43:69:24:
         04:ac:f2:6d:a8:01:18:80:db:7b:a4:62:f6:b9:01:a2:7a:04:
         38:6b:7a:23
-----BEGIN CERTIFICATE-----
MIIEIjCCAwqgAwIBAgIEEAAA4DANBgkqhkiG9w0BAQsFADBEMQswCQYDVQQGEwJE
RTEPMA0GA1UECAwGSGVzc2VuMRQwEgYDVQQKDAtwcml2YWN5aWRlYTEOMAwGA1UE
AwwFQ0EwMDEwHhcNMTgwODMwMTYwNjM2WhcNMTkwODMwMTYwNjM2WjBQMQ8wDQYD
VQQLDAZyZWFsbTExEjAQBgNVBAMMCWNvcm5lbGl1czEpMCcGCSqGSIb3DQEJARYa
dXNlckBsb2NhbGhvc3QubG9jYWxkb21haW4wggEiMA0GCSqGSIb3DQEBAQUAA4IB
DwAwggEKAoIBAQC8yiXmlKoIgQbEEzVFeMdJzj3ACkO9s4q4M2oEAXVDbWF2lZ9P
dLrlQeEuIV9DsIiRCUllxZLQmhgoUiIL9DhYIoMm2LFBKqaY1VUlsLDzvXwxPYf8
tF1Nr+sdcHsH2mnC0Nc/tyQr5+QHRHzml4PwXN64g27UVKOwGmHxrSKhSuvfhLWy
dxkJI/BhneshPHSXv4rxGCebkhVlj9ecdOjTug1zWMIb5gxcDU4q2Ko0JM4XRzUh
uQF72HiMXISc3Rgg2H5jJQbHbYCuZ5SdxQccsASoC+Y/IJsekuboExobkgLU6fSZ
4DNf+fD7QFLZaVMID7ibg8Ie1sxRNlyYvnqfAgMBAAGjggEOMIIBCjALBgNVHQ8E
BAMCBaAwCQYDVR0TBAIwADARBglghkgBhvhCAQEEBAMCBkAwMwYJYIZIAYb4QgEN
BCYWJE9wZW5TU0wgR2VuZXJhdGVkIFNlcnZlciBDZXJ0aWZpY2F0ZTAdBgNVHQ4E
FgQUwEnmvLyqADfaSvrDB/RbBqCXotIwdAYDVR0jBG0wa4AU9KfAzJFGr2TzkfIn
+Miyb4qHMnOhSKRGMEQxCzAJBgNVBAYTAkRFMQ8wDQYDVQQIDAZIZXNzZW4xFDAS
BgNVBAoMC3ByaXZhY3lpZGVhMQ4wDAYDVQQDDAVDQTAwMYIJAPvI66yDzRIHMBMG
A1UdJQQMMAoGCCsGAQUFBwMBMA0GCSqGSIb3DQEBCwUAA4IBAQBIbrafepftxkjZ
86HscSmAjEYboShyqzQY7E1x3x/SLJX/dME3WY3uFVZfWnfDlEXG6YCZlthwJ5EC
0msvxT9AARCG3iY/FnpIQ2KBd+tQK25Z73L5/hbCKF2hYNaLOBRPQSxSerXrWOpS
5WHR5oWrDShEEswMWwT5mrK3LPySo1D1hgLSEF/uflS6wb8HLDPMczGFs8bSv4Du
IliCkMygRYCgoN/4qGSvB8cq45k6NevvwLm+UpP/dkh6rDidrg7h5VoLXE+BArPE
VEDfm9ltQFmHpze4q/vdW9DxpS6DFmdsAQWVwF5DaSQErPJtqAEYgNt7pGL2uQGi
egQ4a3oj
-----END CERTIFICATE-----
