Certificate:
    Data:
        Version: 3 (0x2)
        Serial Number: 268435708 (0x100000fc)
    Signature Algorithm: sha1WithRSAEncryption
        Issuer: C=DE, ST=Hessen, O=privacyidea, CN=CA001
        Validity
            Not Before: Feb 23 15:43:22 2017 GMT
            Not After : Feb 23 15:43:22 2018 GMT
        Subject: CN=Steve Test/emailAddress=steve@openssl.org
        Subject Public Key Info:
            Public Key Algorithm: rsaEncryption
                Public-Key: (2048 bit)
                Modulus:
                    00:d2:81:89:20:51:48:0f:73:f4:11:32:24:d5:1f:
                    1c:fd:5c:f5:b6:e6:c5:f0:52:81:dc:d2:af:66:4a:
                    7c:93:31:61:5c:af:d1:6d:06:70:03:60:7c:72:0c:
                    88:dd:49:cd:9e:02:6c:d2:5a:d7:53:0f:f3:da:be:
                    69:64:b5:0f:0c:00:e3:b3:50:47:a3:b3:9b:ba:13:
                    50:d6:58:5a:4b:ab:39:e0:11:ca:0a:27:67:03:78:
                    22:66:6d:92:1e:1b:5c:49:ae:e6:6b:d1:8e:3b:9d:
                    06:d3:c6:ac:4d:53:43:10:ab:e8:96:c1:87:82:97:
                    99:8f:20:d3:99:12:37:31:84:e1:8a:ff:29:03:5f:
                    22:90:3e:7f:9b:e0:20:c1:ad:dc:ae:4c:39:1a:31:
                    96:17:02:8c:b2:d9:b4:0d:20:12:9b:7d:86:54:fd:
                    33:fd:c1:2a:62:46:f8:60:96:cf:6e:01:6f:22:df:
                    13:47:e7:97:ec:05:72:23:a3:62:f8:fa:ef:ac:9c:
                    72:f0:37:cb:2f:37:cf:90:a8:27:51:86:c6:d7:78:
                    08:8f:7e:25:a2:15:70:a2:fb:1c:b6:15:5e:a0:97:
                    8b:81:4c:09:28:8a:27:3b:94:bc:71:db:5b:71:37:
                    9a:2b:16:e0:6f:b5:c9:f5:4b:4f:20:ba:65:cf:af:
                    ad:ad
                Exponent: 65537 (0x10001)
        X509v3 extensions:
            X509v3 Key Usage: 
                Digital Signature, Key Encipherment
            X509v3 Basic Constraints: 
                CA:FALSE
            Netscape Cert Type: 
                SSL Server
            Netscape Comment: 
                OpenSSL Generated Server Certificate
            X509v3 Subject Key Identifier: 
                E5:25:6D:3E:AF:0D:DD:3F:4C:F2:45:19:39:D5:14:DB:7E:9C:C0:AD
            X509v3 Authority Key Identifier: 
                keyid:F4:A7:C0:CC:91:46:AF:64:F3:91:F2:27:F8:C8:B2:6F:8A:87:32:73
                DirName:/C=DE/ST=Hessen/O=privacyidea/CN=CA001
                serial:FB:C8:EB:AC:83:CD:12:07

            X509v3 Extended Key Usage: 
                TLS Web Server Authentication
    Signature Algorithm: sha1WithRSAEncryption
         2a:f2:31:70:b0:8e:4a:5c:a6:99:33:35:c0:99:38:bc:47:26:
         54:b3:b8:17:cc:4f:39:9d:f7:d9:67:2e:4a:f2:3e:9b:21:40:
         96:18:bf:93:a3:c3:71:76:78:03:1f:fc:71:e6:47:10:e5:90:
         f4:fe:6d:01:d2:2a:ad:93:91:98:34:38:13:cb:49:8d:19:c5:
         5d:e6:4f:11:f0:e6:4d:c8:40:d6:15:e9:2e:88:13:0b:b2:bd:
         9f:93:ac:63:a8:fe:cc:5e:73:fd:81:43:26:b4:54:54:03:6f:
         fa:ff:4b:06:63:fd:63:27:c3:64:6c:f5:e4:2b:c2:73:d5:34:
         48:dd:dc:bb:e1:30:46:0c:f2:7d:4c:51:32:0b:52:88:aa:0b:
         14:41:6d:ed:3c:3d:e8:23:41:28:fc:a0:be:cd:ae:f7:04:1f:
         25:4d:6f:ed:19:56:5f:ff:9a:30:16:0e:aa:c2:25:92:a9:4c:
         02:36:c0:c6:c3:ed:68:f5:d5:e4:f8:d7:fc:b5:0a:78:3b:6b:
         16:99:df:9e:6e:fb:57:01:b7:4f:07:c3:8f:50:53:8e:49:0c:
         46:8e:60:c1:51:de:2f:8d:5e:d0:d2:3f:f2:0f:d1:9b:87:84:
         38:4a:24:0d:b1:ba:4c:da:c7:5d:b9:f6:d6:ff:7d:aa:9b:de:
         63:83:ce:a3
-----BEGIN CERTIFICATE-----
MIIECTCCAvGgAwIBAgIEEAAA/DANBgkqhkiG9w0BAQUFADBEMQswCQYDVQQGEwJE
RTEPMA0GA1UECAwGSGVzc2VuMRQwEgYDVQQKDAtwcml2YWN5aWRlYTEOMAwGA1UE
AwwFQ0EwMDEwHhcNMTcwMjIzMTU0MzIyWhcNMTgwMjIzMTU0MzIyWjA3MRMwEQYD
VQQDDApTdGV2ZSBUZXN0MSAwHgYJKoZIhvcNAQkBFhFzdGV2ZUBvcGVuc3NsLm9y
ZzCCASIwDQYJKoZIhvcNAQEBBQADggEPADCCAQoCggEBANKBiSBRSA9z9BEyJNUf
HP1c9bbmxfBSgdzSr2ZKfJMxYVyv0W0GcANgfHIMiN1JzZ4CbNJa11MP89q+aWS1
DwwA47NQR6Ozm7oTUNZYWkurOeARygonZwN4ImZtkh4bXEmu5mvRjjudBtPGrE1T
QxCr6JbBh4KXmY8g05kSNzGE4Yr/KQNfIpA+f5vgIMGt3K5MORoxlhcCjLLZtA0g
Ept9hlT9M/3BKmJG+GCWz24BbyLfE0fnl+wFciOjYvj676yccvA3yy83z5CoJ1GG
xtd4CI9+JaIVcKL7HLYVXqCXi4FMCSiKJzuUvHHbW3E3misW4G+1yfVLTyC6Zc+v
ra0CAwEAAaOCAQ4wggEKMAsGA1UdDwQEAwIFoDAJBgNVHRMEAjAAMBEGCWCGSAGG
+EIBAQQEAwIGQDAzBglghkgBhvhCAQ0EJhYkT3BlblNTTCBHZW5lcmF0ZWQgU2Vy
dmVyIENlcnRpZmljYXRlMB0GA1UdDgQWBBTlJW0+rw3dP0zyRRk51RTbfpzArTB0
BgNVHSMEbTBrgBT0p8DMkUavZPOR8if4yLJviocyc6FIpEYwRDELMAkGA1UEBhMC
REUxDzANBgNVBAgMBkhlc3NlbjEUMBIGA1UECgwLcHJpdmFjeWlkZWExDjAMBgNV
BAMMBUNBMDAxggkA+8jrrIPNEgcwEwYDVR0lBAwwCgYIKwYBBQUHAwEwDQYJKoZI
hvcNAQEFBQADggEBACryMXCwjkpcppkzNcCZOLxHJlSzuBfMTzmd99lnLkryPpsh
QJYYv5Ojw3F2eAMf/HHmRxDlkPT+bQHSKq2TkZg0OBPLSY0ZxV3mTxHw5k3IQNYV
6S6IEwuyvZ+TrGOo/sxec/2BQya0VFQDb/r/SwZj/WMnw2Rs9eQrwnPVNEjd3Lvh
MEYM8n1MUTILUoiqCxRBbe08PegjQSj8oL7NrvcEHyVNb+0ZVl//mjAWDqrCJZKp
TAI2wMbD7Wj11eT41/y1Cng7axaZ355u+1cBt08Hw49QU45JDEaOYMFR3i+NXtDS
P/IP0ZuHhDhKJA2xukzax1259tb/faqb3mODzqM=
-----END CERTIFICATE-----
