Certificate:
    Data:
        Version: 3 (0x2)
        Serial Number: 268435676 (0x100000dc)
    Signature Algorithm: sha256WithRSAEncryption
        Issuer: C=DE, ST=Hessen, O=privacyidea, CN=CA001
        Validity
            Not Before: Aug 30 16:01:19 2018 GMT
            Not After : Aug 30 16:01:19 2019 GMT
        Subject: C=DE, ST=Hessen, O=privacyidea, CN=usercert
        Subject Public Key Info:
            Public Key Algorithm: rsaEncryption
                Public-Key: (2048 bit)
                Modulus:
                    00:dc:2f:d1:5f:29:97:d4:7c:c3:53:c8:30:bd:4b:
                    67:70:2c:24:6b:b8:5e:eb:21:7a:48:12:56:7c:81:
                    5c:48:75:b6:68:eb:f6:f2:98:4e:50:51:d1:7f:6c:
                    73:f3:0a:a7:ae:be:48:5e:e5:d6:e1:d9:2a:7c:32:
                    6e:4e:fd:08:f6:5a:54:49:23:73:c3:b9:07:18:d1:
                    ef:b3:ac:f8:8a:dc:94:96:a4:90:3a:8e:74:df:e6:
                    0d:37:1b:bd:5b:b7:25:1a:56:39:da:6f:91:aa:5e:
                    1c:74:f3:f9:7c:14:01:83:12:65:76:c7:bb:fe:36:
                    5b:95:e9:72:65:83:ed:3e:98:30:71:fa:87:dd:a3:
                    36:5a:30:03:2e:26:e0:61:d1:bf:02:3f:b6:06:1f:
                    4a:89:28:1c:5c:a2:ff:4e:be:94:e6:8c:e0:da:82:
                    f1:9d:29:32:48:30:73:b4:04:f6:42:1e:be:f7:e2:
                    32:32:27:3c:9d:89:2f:70:3e:85:9a:6f:5c:c5:09:
                    c0:8c:32:2f:72:22:c9:d2:95:1f:b6:ac:72:60:72:
                    b7:82:4d:6b:ce:5b:e3:00:d0:d2:2f:58:c6:e0:10:
                    e5:51:ca:4d:3b:2e:e6:7e:ab:84:d6:56:f1:93:35:
                    a0:93:64:26:81:75:2f:91:b5:16:06:38:0b:db:cc:
                    2d:07
                Exponent: 65537 (0x10001)
        X509v3 extensions:
            X509v3 Key Usage: 
                Digital Signature, Key Encipherment
            X509v3 Basic Constraints: 
                CA:FALSE
            Netscape Cert Type: 
                SSL Server
            Netscape Comment: 
                OpenSSL Generated Server Certificate
            X509v3 Subject Key Identifier: 
                FC:14:D1:F0:4B:8D:00:90:F2:F5:B8:71:9E:4E:97:C3:92:54:AD:0B
            X509v3 Authority Key Identifier: 
                keyid:F4:A7:C0:CC:91:46:AF:64:F3:91:F2:27:F8:C8:B2:6F:8A:87:32:73
                DirName:/C=DE/ST=Hessen/O=privacyidea/CN=CA001
                serial:FB:C8:EB:AC:83:CD:12:07

            X509v3 Extended Key Usage: 
                TLS Web Server Authentication
    Signature Algorithm: sha256WithRSAEncryption
         1b:ec:f1:77:1c:6e:a0:20:7e:7c:5f:d2:45:2b:1e:12:99:45:
         eb:0d:fa:d8:63:fd:9b:6e:e5:c7:bf:8c:19:e2:7d:bb:9a:0b:
         6f:db:ed:a1:14:99:6f:18:ea:1e:fa:6c:d2:62:4a:6d:2b:de:
         2f:ab:ca:83:f0:d6:bb:5e:ee:fb:b4:71:90:2a:a4:83:b7:34:
         04:b6:50:8e:dc:b9:78:d4:89:e3:5b:c6:de:0d:e3:bc:48:cf:
         b5:32:1e:4f:b3:f6:03:3e:43:ab:4d:e2:a4:48:12:08:c2:2f:
         ca:63:77:92:81:33:55:d9:dd:79:13:43:cc:41:2c:a3:1c:da:
         93:2a:90:57:22:b1:a9:2b:f9:20:ce:ba:7c:57:22:d4:1e:73:
         b8:7e:48:55:08:af:96:59:0a:3c:31:e0:de:17:72:44:28:1f:
         1b:b2:9b:ce:f2:1f:81:9f:db:ce:48:be:2c:e3:04:0e:d2:ba:
         73:f2:cc:7f:1c:b2:e2:dd:b3:c5:c4:7c:d1:c0:79:5c:e7:9c:
         54:57:21:5a:dc:16:9f:df:8a:69:97:f0:90:93:c3:da:11:5a:
         fe:bb:34:6e:19:57:06:4b:99:b3:69:ed:d9:f6:88:59:86:1b:
         7f:49:64:44:da:26:e9:41:93:a2:8c:55:20:88:01:fa:94:9e:
         6a:eb:d0:90
-----BEGIN CERTIFICATE-----
MIIEGTCCAwGgAwIBAgIEEAAA3DANBgkqhkiG9w0BAQsFADBEMQswCQYDVQQGEwJE
RTEPMA0GA1UECAwGSGVzc2VuMRQwEgYDVQQKDAtwcml2YWN5aWRlYTEOMAwGA1UE
AwwFQ0EwMDEwHhcNMTgwODMwMTYwMTE5WhcNMTkwODMwMTYwMTE5WjBHMQswCQYD
VQQGEwJERTEPMA0GA1UECAwGSGVzc2VuMRQwEgYDVQQKDAtwcml2YWN5aWRlYTER
MA8GA1UEAwwIdXNlcmNlcnQwggEiMA0GCSqGSIb3DQEBAQUAA4IBDwAwggEKAoIB
AQDcL9FfKZfUfMNTyDC9S2dwLCRruF7rIXpIElZ8gVxIdbZo6/bymE5QUdF/bHPz
Cqeuvkhe5dbh2Sp8Mm5O/Qj2WlRJI3PDuQcY0e+zrPiK3JSWpJA6jnTf5g03G71b
tyUaVjnab5GqXhx08/l8FAGDEmV2x7v+NluV6XJlg+0+mDBx+ofdozZaMAMuJuBh
0b8CP7YGH0qJKBxcov9OvpTmjODagvGdKTJIMHO0BPZCHr734jIyJzydiS9wPoWa
b1zFCcCMMi9yIsnSlR+2rHJgcreCTWvOW+MA0NIvWMbgEOVRyk07LuZ+q4TWVvGT
NaCTZCaBdS+RtRYGOAvbzC0HAgMBAAGjggEOMIIBCjALBgNVHQ8EBAMCBaAwCQYD
VR0TBAIwADARBglghkgBhvhCAQEEBAMCBkAwMwYJYIZIAYb4QgENBCYWJE9wZW5T
U0wgR2VuZXJhdGVkIFNlcnZlciBDZXJ0aWZpY2F0ZTAdBgNVHQ4EFgQU/BTR8EuN
AJDy9bhxnk6Xw5JUrQswdAYDVR0jBG0wa4AU9KfAzJFGr2TzkfIn+Miyb4qHMnOh
SKRGMEQxCzAJBgNVBAYTAkRFMQ8wDQYDVQQIDAZIZXNzZW4xFDASBgNVBAoMC3By
aXZhY3lpZGVhMQ4wDAYDVQQDDAVDQTAwMYIJAPvI66yDzRIHMBMGA1UdJQQMMAoG
CCsGAQUFBwMBMA0GCSqGSIb3DQEBCwUAA4IBAQAb7PF3HG6gIH58X9JFKx4SmUXr
DfrYY/2bbuXHv4wZ4n27mgtv2+2hFJlvGOoe+mzSYkptK94vq8qD8Na7Xu77tHGQ
KqSDtzQEtlCO3Ll41InjW8beDeO8SM+1Mh5Ps/YDPkOrTeKkSBIIwi/KY3eSgTNV
2d15E0PMQSyjHNqTKpBXIrGpK/kgzrp8VyLUHnO4fkhVCK+WWQo8MeDeF3JEKB8b
spvO8h+Bn9vOSL4s4wQO0rpz8sx/HLLi3bPFxHzRwHlc55xUVyFa3Baf34ppl/CQ
k8PaEVr+uzRuGVcGS5mzae3Z9ohZhht/SWRE2ibpQZOijFUgiAH6lJ5q69CQ
-----END CERTIFICATE-----
