Certificate:
    Data:
        Version: 3 (0x2)
        Serial Number: 268435668 (0x100000d4)
    Signature Algorithm: sha256WithRSAEncryption
        Issuer: C=DE, ST=Hessen, O=privacyidea, CN=CA001
        Validity
            Not Before: Oct 22 06:43:31 2018 GMT
            Not After : Nov 10 06:43:31 2020 GMT
        Subject: CN=Steve Test/emailAddress=steve@openssl.org
        Subject Public Key Info:
            Public Key Algorithm: rsaEncryption
                Public-Key: (2048 bit)
                Modulus:
                    00:d2:81:89:20:51:48:0f:73:f4:11:32:24:d5:1f:
                    1c:fd:5c:f5:b6:e6:c5:f0:52:81:dc:d2:af:66:4a:
                    7c:93:31:61:5c:af:d1:6d:06:70:03:60:7c:72:0c:
                    88:dd:49:cd:9e:02:6c:d2:5a:d7:53:0f:f3:da:be:
                    69:64:b5:0f:0c:00:e3:b3:50:47:a3:b3:9b:ba:13:
                    50:d6:58:5a:4b:ab:39:e0:11:ca:0a:27:67:03:78:
                    22:66:6d:92:1e:1b:5c:49:ae:e6:6b:d1:8e:3b:9d:
                    06:d3:c6:ac:4d:53:43:10:ab:e8:96:c1:87:82:97:
                    99:8f:20:d3:99:12:37:31:84:e1:8a:ff:29:03:5f:
                    22:90:3e:7f:9b:e0:20:c1:ad:dc:ae:4c:39:1a:31:
                    96:17:02:8c:b2:d9:b4:0d:20:12:9b:7d:86:54:fd:
                    33:fd:c1:2a:62:46:f8:60:96:cf:6e:01:6f:22:df:
                    13:47:e7:97:ec:05:72:23:a3:62:f8:fa:ef:ac:9c:
                    72:f0:37:cb:2f:37:cf:90:a8:27:51:86:c6:d7:78:
                    08:8f:7e:25:a2:15:70:a2:fb:1c:b6:15:5e:a0:97:
                    8b:81:4c:09:28:8a:27:3b:94:bc:71:db:5b:71:37:
                    9a:2b:16:e0:6f:b5:c9:f5:4b:4f:20:ba:65:cf:af:
                    ad:ad
                Exponent: 65537 (0x10001)
        X509v3 extensions:
            X509v3 Key Usage: 
                Digital Signature, Key Encipherment
            X509v3 Basic Constraints: 
                CA:FALSE
            Netscape Cert Type: 
                SSL Server
            Netscape Comment: 
                OpenSSL Generated Server Certificate
            X509v3 Subject Key Identifier: 
                E5:25:6D:3E:AF:0D:DD:3F:4C:F2:45:19:39:D5:14:DB:7E:9C:C0:AD
            X509v3 Authority Key Identifier: 
                keyid:F4:A7:C0:CC:91:46:AF:64:F3:91:F2:27:F8:C8:B2:6F:8A:87:32:73
                DirName:/C=DE/ST=Hessen/O=privacyidea/CN=CA001
                serial:FB:C8:EB:AC:83:CD:12:07

            X509v3 Extended Key Usage: 
                TLS Web Server Authentication
    Signature Algorithm: sha256WithRSAEncryption
         6d:b7:56:5c:c5:29:18:7d:f2:45:71:b0:4a:10:b2:c2:1b:4d:
         50:51:8d:ff:e0:2e:68:c6:34:74:be:07:3d:fa:bf:1f:3f:a2:
         4b:d6:19:5a:cb:64:41:df:a0:26:c0:48:5f:ab:4d:da:2a:3c:
         dd:87:50:c9:d4:46:30:7b:05:3b:08:63:ff:72:9a:85:66:0a:
         14:8c:57:8e:a8:0d:ea:9f:91:30:4a:20:a7:9c:75:cd:0d:5e:
         ab:83:b9:7d:06:44:5a:09:b4:4d:95:7c:fe:ba:b8:4d:9a:f7:
         91:5d:12:1d:e3:2e:cc:1c:7a:20:4b:35:3a:80:7b:2e:69:2a:
         ce:cb:5f:52:56:f9:1a:09:b4:7f:ea:62:c3:90:8f:3d:72:45:
         9e:da:0c:d9:41:87:da:22:06:a3:0c:bd:fd:7a:52:dd:19:03:
         1c:76:7f:5d:b9:d8:9f:10:92:3e:6a:14:ab:03:a0:49:c4:f7:
         51:10:0e:e7:47:1e:8e:5b:e8:12:88:7e:74:28:68:5d:fb:c7:
         54:7a:2d:e0:84:ef:28:63:a8:60:de:31:ca:29:8a:c1:fe:27:
         77:3a:81:1f:5a:bf:e6:5b:3c:f6:74:fd:f7:ae:9c:d2:74:ae:
         26:7a:2d:77:a1:1e:09:20:e0:67:9f:ac:31:06:27:fb:26:94:
         53:59:73:30
-----BEGIN CERTIFICATE-----
MIIECTCCAvGgAwIBAgIEEAAA1DANBgkqhkiG9w0BAQsFADBEMQswCQYDVQQGEwJE
RTEPMA0GA1UECAwGSGVzc2VuMRQwEgYDVQQKDAtwcml2YWN5aWRlYTEOMAwGA1UE
AwwFQ0EwMDEwHhcNMTgxMDIyMDY0MzMxWhcNMjAxMTEwMDY0MzMxWjA3MRMwEQYD
VQQDDApTdGV2ZSBUZXN0MSAwHgYJKoZIhvcNAQkBFhFzdGV2ZUBvcGVuc3NsLm9y
ZzCCASIwDQYJKoZIhvcNAQEBBQADggEPADCCAQoCggEBANKBiSBRSA9z9BEyJNUf
HP1c9bbmxfBSgdzSr2ZKfJMxYVyv0W0GcANgfHIMiN1JzZ4CbNJa11MP89q+aWS1
DwwA47NQR6Ozm7oTUNZYWkurOeARygonZwN4ImZtkh4bXEmu5mvRjjudBtPGrE1T
QxCr6JbBh4KXmY8g05kSNzGE4Yr/KQNfIpA+f5vgIMGt3K5MORoxlhcCjLLZtA0g
Ept9hlT9M/3BKmJG+GCWz24BbyLfE0fnl+wFciOjYvj676yccvA3yy83z5CoJ1GG
xtd4CI9+JaIVcKL7HLYVXqCXi4FMCSiKJzuUvHHbW3E3misW4G+1yfVLTyC6Zc+v
ra0CAwEAAaOCAQ4wggEKMAsGA1UdDwQEAwIFoDAJBgNVHRMEAjAAMBEGCWCGSAGG
+EIBAQQEAwIGQDAzBglghkgBhvhCAQ0EJhYkT3BlblNTTCBHZW5lcmF0ZWQgU2Vy
dmVyIENlcnRpZmljYXRlMB0GA1UdDgQWBBTlJW0+rw3dP0zyRRk51RTbfpzArTB0
BgNVHSMEbTBrgBT0p8DMkUavZPOR8if4yLJviocyc6FIpEYwRDELMAkGA1UEBhMC
REUxDzANBgNVBAgMBkhlc3NlbjEUMBIGA1UECgwLcHJpdmFjeWlkZWExDjAMBgNV
BAMMBUNBMDAxggkA+8jrrIPNEgcwEwYDVR0lBAwwCgYIKwYBBQUHAwEwDQYJKoZI
hvcNAQELBQADggEBAG23VlzFKRh98kVxsEoQssIbTVBRjf/gLmjGNHS+Bz36vx8/
okvWGVrLZEHfoCbASF+rTdoqPN2HUMnURjB7BTsIY/9ymoVmChSMV46oDeqfkTBK
IKecdc0NXquDuX0GRFoJtE2VfP66uE2a95FdEh3jLswceiBLNTqAey5pKs7LX1JW
+RoJtH/qYsOQjz1yRZ7aDNlBh9oiBqMMvf16Ut0ZAxx2f1252J8Qkj5qFKsDoEnE
91EQDudHHo5b6BKIfnQoaF37x1R6LeCE7yhjqGDeMcopisH+J3c6gR9av+ZbPPZ0
/feunNJ0riZ6LXehHgkg4GefrDEGJ/smlFNZczA=
-----END CERTIFICATE-----
