Certificate:
    Data:
        Version: 3 (0x2)
        Serial Number: 268435718 (0x10000106)
    Signature Algorithm: sha1WithRSAEncryption
        Issuer: C=DE, ST=Hessen, O=privacyidea, CN=CA001
        Validity
            Not Before: Apr 26 14:52:29 2016 GMT
            Not After : Apr 26 14:52:29 2017 GMT
        Subject: OU=local, CN=corny/emailAddress=corny@cornelinux.de
        Subject Public Key Info:
            Public Key Algorithm: rsaEncryption
                Public-Key: (2048 bit)
                Modulus:
                    00:e3:90:39:05:6f:e3:a4:f2:48:f7:9d:f4:3f:b0:
                    db:23:bf:ad:73:78:32:60:05:e7:0a:2d:2f:fc:a6:
                    22:e3:2b:77:53:fb:c5:c5:40:96:ea:98:e6:f3:8d:
                    e0:ab:a5:88:b2:1d:45:18:a3:b4:3b:2d:c1:dc:62:
                    b5:78:c2:fa:b9:73:88:0a:ed:4c:79:13:72:2f:ba:
                    3c:9e:60:b8:8e:a3:00:57:90:a1:c7:6f:1b:b7:1d:
                    d5:ea:6f:e6:9d:97:4b:c7:d8:e5:4e:c0:65:8e:36:
                    a2:7b:ad:41:72:ce:0b:cd:3d:3f:7c:83:b8:fc:33:
                    20:a4:bf:94:b7:4b:18:68:fa:75:b0:01:46:06:60:
                    a6:6a:31:fd:0d:5b:f3:72:e4:ff:10:6a:3d:69:ef:
                    dd:06:05:2f:97:a2:82:19:80:6c:5a:f9:f6:4a:d7:
                    6b:c8:53:4d:66:aa:f6:d5:d4:ba:cc:d7:db:b9:1d:
                    49:27:0a:b2:bc:26:47:e1:b4:be:cc:af:20:58:d9:
                    83:2f:00:79:1b:3d:63:ca:2f:36:c3:7f:94:af:6c:
                    ac:dd:d6:a4:a5:54:ab:1f:1c:81:7e:da:5a:4b:e5:
                    ce:8f:17:31:7b:ee:8d:ce:22:05:4e:48:70:52:fa:
                    b9:4b:80:2e:3f:ae:fc:29:ef:98:81:23:15:33:85:
                    be:59
                Exponent: 65537 (0x10001)
        X509v3 extensions:
            X509v3 Key Usage: 
                Digital Signature, Key Encipherment
            X509v3 Basic Constraints: 
                CA:FALSE
            Netscape Cert Type: 
                SSL Server
            Netscape Comment: 
                OpenSSL Generated Server Certificate
            X509v3 Subject Key Identifier: 
                1B:50:23:1F:84:23:18:4F:B2:4C:BC:A0:B5:1B:0C:2B:20:5C:1E:A0
            X509v3 Authority Key Identifier: 
                keyid:F4:A7:C0:CC:91:46:AF:64:F3:91:F2:27:F8:C8:B2:6F:8A:87:32:73
                DirName:/C=DE/ST=Hessen/O=privacyidea/CN=CA001
                serial:FB:C8:EB:AC:83:CD:12:07

            X509v3 Extended Key Usage: 
                TLS Web Server Authentication
    Signature Algorithm: sha1WithRSAEncryption
         1d:78:bf:e0:22:3d:31:c8:94:11:1a:26:12:59:ea:94:b7:f0:
         e8:b4:02:a8:6e:25:31:1e:4b:17:16:06:da:3c:a9:a4:5c:4f:
         f2:e6:01:b8:79:cd:fc:32:17:79:f7:29:5f:c6:b0:5b:75:03:
         b8:c8:34:fc:2f:f1:85:0e:8f:69:28:b5:4e:64:e5:74:a8:e7:
         cf:84:b4:41:40:04:04:6c:54:bd:3a:a6:4a:37:cc:3c:8c:2c:
         89:73:31:07:3e:0f:6a:5e:07:fa:f0:60:d6:4b:f0:53:58:20:
         8d:41:18:cb:2a:a6:ea:12:28:cc:bd:82:41:da:08:4e:a8:b9:
         0f:21:ac:cd:ea:86:de:57:db:a0:de:c7:d5:d8:0a:a1:ce:67:
         bd:18:c5:33:47:d9:d4:f5:f2:66:1a:28:5e:af:57:90:a2:84:
         7f:cc:6a:4a:86:2e:ba:56:ed:87:75:21:dd:cd:8a:b2:7e:26:
         e1:a6:10:8c:3f:69:74:f1:76:57:da:c6:94:bc:40:36:f4:7e:
         09:bd:70:10:51:be:61:13:e3:80:2e:19:84:fc:81:19:9c:2a:
         00:d9:a9:73:72:c6:56:ab:4e:c9:21:7f:40:0c:d2:d0:17:63:
         78:13:7b:53:f1:be:7d:eb:f8:89:11:4c:1e:b6:3d:f1:09:72:
         c1:94:6f:25
-----BEGIN CERTIFICATE-----
MIIEFjCCAv6gAwIBAgIEEAABBjANBgkqhkiG9w0BAQUFADBEMQswCQYDVQQGEwJE
RTEPMA0GA1UECAwGSGVzc2VuMRQwEgYDVQQKDAtwcml2YWN5aWRlYTEOMAwGA1UE
AwwFQ0EwMDEwHhcNMTYwNDI2MTQ1MjI5WhcNMTcwNDI2MTQ1MjI5WjBEMQ4wDAYD
VQQLEwVsb2NhbDEOMAwGA1UEAxMFY29ybnkxIjAgBgkqhkiG9w0BCQEWE2Nvcm55
QGNvcm5lbGludXguZGUwggEiMA0GCSqGSIb3DQEBAQUAA4IBDwAwggEKAoIBAQDj
kDkFb+Ok8kj3nfQ/sNsjv61zeDJgBecKLS/8piLjK3dT+8XFQJbqmObzjeCrpYiy
HUUYo7Q7LcHcYrV4wvq5c4gK7Ux5E3IvujyeYLiOowBXkKHHbxu3HdXqb+adl0vH
2OVOwGWONqJ7rUFyzgvNPT98g7j8MyCkv5S3Sxho+nWwAUYGYKZqMf0NW/Ny5P8Q
aj1p790GBS+XooIZgGxa+fZK12vIU01mqvbV1LrM19u5HUknCrK8JkfhtL7MryBY
2YMvAHkbPWPKLzbDf5SvbKzd1qSlVKsfHIF+2lpL5c6PFzF77o3OIgVOSHBS+rlL
gC4/rvwp75iBIxUzhb5ZAgMBAAGjggEOMIIBCjALBgNVHQ8EBAMCBaAwCQYDVR0T
BAIwADARBglghkgBhvhCAQEEBAMCBkAwMwYJYIZIAYb4QgENBCYWJE9wZW5TU0wg
R2VuZXJhdGVkIFNlcnZlciBDZXJ0aWZpY2F0ZTAdBgNVHQ4EFgQUG1AjH4QjGE+y
TLygtRsMKyBcHqAwdAYDVR0jBG0wa4AU9KfAzJFGr2TzkfIn+Miyb4qHMnOhSKRG
MEQxCzAJBgNVBAYTAkRFMQ8wDQYDVQQIDAZIZXNzZW4xFDASBgNVBAoMC3ByaXZh
Y3lpZGVhMQ4wDAYDVQQDDAVDQTAwMYIJAPvI66yDzRIHMBMGA1UdJQQMMAoGCCsG
AQUFBwMBMA0GCSqGSIb3DQEBBQUAA4IBAQAdeL/gIj0xyJQRGiYSWeqUt/DotAKo
biUxHksXFgbaPKmkXE/y5gG4ec38Mhd59ylfxrBbdQO4yDT8L/GFDo9pKLVOZOV0
qOfPhLRBQAQEbFS9OqZKN8w8jCyJczEHPg9qXgf68GDWS/BTWCCNQRjLKqbqEijM
vYJB2ghOqLkPIazN6obeV9ug3sfV2Aqhzme9GMUzR9nU9fJmGiher1eQooR/zGpK
hi66Vu2HdSHdzYqyfibhphCMP2l08XZX2saUvEA29H4JvXAQUb5hE+OALhmE/IEZ
nCoA2alzcsZWq07JIX9ADNLQF2N4E3tT8b596/iJEUwetj3xCXLBlG8l
-----END CERTIFICATE-----
