Certificate:
    Data:
        Version: 3 (0x2)
        Serial Number: 268435703 (0x100000f7)
    Signature Algorithm: sha1WithRSAEncryption
        Issuer: C=DE, ST=Hessen, O=privacyidea, CN=CA001
        Validity
            Not Before: Feb 23 15:37:45 2017 GMT
            Not After : Feb 23 15:37:45 2018 GMT
        Subject: C=DE, ST=Hessen, O=privacyidea, CN=requester.localdomain
        Subject Public Key Info:
            Public Key Algorithm: rsaEncryption
                Public-Key: (2048 bit)
                Modulus:
                    00:cd:be:14:4f:fa:ce:01:3f:42:22:1b:1d:9c:af:
                    dd:92:d2:7f:db:6c:b7:3e:39:43:43:6b:13:03:f1:
                    05:f4:07:74:bc:76:69:28:0b:af:19:8e:d7:fc:e3:
                    cd:c6:58:f2:ca:7f:08:6d:53:fc:07:02:44:24:c6:
                    b4:34:4c:8c:04:fe:33:0e:40:e2:20:ba:02:73:5a:
                    f7:f5:4f:63:6e:cc:c6:b6:df:54:1d:37:39:7d:51:
                    36:26:5f:bd:dc:3f:a8:8b:6b:a2:ae:b6:9d:d6:21:
                    e7:df:41:b8:7a:28:2a:68:48:ca:a8:2d:ed:e1:e9:
                    46:5e:5a:72:6d:b4:84:38:87:91:fd:94:11:0b:28:
                    84:c6:c2:2f:2a:fb:01:f9:36:7a:09:75:d1:33:88:
                    3c:73:41:5b:c8:bf:94:89:70:a1:f0:c0:b9:2e:50:
                    53:1e:b1:17:64:69:f4:2d:81:e0:a9:0d:0e:32:e9:
                    ba:55:8a:85:f1:1b:6f:49:79:b4:7f:88:c3:0d:3e:
                    54:88:9b:3d:1f:38:8c:04:f3:ee:6a:63:2b:f5:c6:
                    db:b4:83:aa:c4:78:41:3a:7d:4b:e1:c8:3e:71:ca:
                    1b:61:59:ea:c6:c4:ca:32:5e:c9:e9:bf:12:29:e6:
                    c6:c3:63:fe:a0:55:da:7a:f1:60:98:4d:26:ed:fa:
                    70:2d
                Exponent: 65537 (0x10001)
        X509v3 extensions:
            X509v3 Key Usage: 
                Digital Signature, Key Encipherment
            X509v3 Basic Constraints: 
                CA:FALSE
            Netscape Cert Type: 
                SSL Server
            Netscape Comment: 
                OpenSSL Generated Server Certificate
            X509v3 Subject Key Identifier: 
                53:3F:ED:5D:09:07:B3:65:7B:AB:45:C9:24:5B:09:77:80:0A:96:ED
            X509v3 Authority Key Identifier: 
                keyid:F4:A7:C0:CC:91:46:AF:64:F3:91:F2:27:F8:C8:B2:6F:8A:87:32:73
                DirName:/C=DE/ST=Hessen/O=privacyidea/CN=CA001
                serial:FB:C8:EB:AC:83:CD:12:07

            X509v3 Extended Key Usage: 
                TLS Web Server Authentication
    Signature Algorithm: sha1WithRSAEncryption
         7f:7c:52:89:94:3b:ed:16:14:2a:eb:74:d1:95:f5:81:13:3b:
         f8:02:65:9d:b0:1c:f4:bc:1b:92:bc:53:aa:e6:40:46:8c:ac:
         f6:ab:4f:c6:ac:45:f8:a7:ff:12:c2:08:96:6d:5f:65:31:db:
         3e:aa:12:e0:70:28:c5:dd:12:4f:d3:d4:8f:c5:cd:1c:d9:7b:
         8c:66:fd:a2:e0:dd:26:e5:c1:d7:2b:7d:ac:83:dc:de:9b:e3:
         a0:4c:2f:7a:57:cf:db:95:bb:d3:50:29:7e:3a:36:c4:5c:96:
         b3:69:a8:3d:da:b2:59:10:bc:5f:3c:6b:2e:fe:2a:14:fe:4f:
         a1:69:31:5c:0d:49:f9:e3:4a:af:a1:cb:58:dd:67:b0:0d:1b:
         b2:46:c0:a8:0a:e0:19:b2:65:e5:6c:09:31:79:71:04:02:80:
         ed:aa:7e:9e:e1:68:3d:81:58:b8:6d:99:68:17:f3:2a:6c:3c:
         46:9a:79:e7:47:09:74:c0:b8:ba:98:69:91:8f:d0:6f:ad:48:
         1b:84:b1:d1:6b:6e:88:81:12:ed:a7:d9:7c:cf:ff:2d:22:ac:
         c2:e3:bd:71:c1:1e:b7:8a:ac:90:f5:de:f7:b7:c3:90:a5:56:
         86:13:3c:b6:86:0b:a9:2c:5d:62:75:42:6e:3a:be:96:1b:a5:
         c6:64:fd:94
-----BEGIN CERTIFICATE-----
MIIEJjCCAw6gAwIBAgIEEAAA9zANBgkqhkiG9w0BAQUFADBEMQswCQYDVQQGEwJE
RTEPMA0GA1UECAwGSGVzc2VuMRQwEgYDVQQKDAtwcml2YWN5aWRlYTEOMAwGA1UE
AwwFQ0EwMDEwHhcNMTcwMjIzMTUzNzQ1WhcNMTgwMjIzMTUzNzQ1WjBUMQswCQYD
VQQGEwJERTEPMA0GA1UECAwGSGVzc2VuMRQwEgYDVQQKDAtwcml2YWN5aWRlYTEe
MBwGA1UEAwwVcmVxdWVzdGVyLmxvY2FsZG9tYWluMIIBIjANBgkqhkiG9w0BAQEF
AAOCAQ8AMIIBCgKCAQEAzb4UT/rOAT9CIhsdnK/dktJ/22y3PjlDQ2sTA/EF9Ad0
vHZpKAuvGY7X/OPNxljyyn8IbVP8BwJEJMa0NEyMBP4zDkDiILoCc1r39U9jbszG
tt9UHTc5fVE2Jl+93D+oi2uirrad1iHn30G4eigqaEjKqC3t4elGXlpybbSEOIeR
/ZQRCyiExsIvKvsB+TZ6CXXRM4g8c0FbyL+UiXCh8MC5LlBTHrEXZGn0LYHgqQ0O
Mum6VYqF8RtvSXm0f4jDDT5UiJs9HziMBPPuamMr9cbbtIOqxHhBOn1L4cg+ccob
YVnqxsTKMl7J6b8SKebGw2P+oFXaevFgmE0m7fpwLQIDAQABo4IBDjCCAQowCwYD
VR0PBAQDAgWgMAkGA1UdEwQCMAAwEQYJYIZIAYb4QgEBBAQDAgZAMDMGCWCGSAGG
+EIBDQQmFiRPcGVuU1NMIEdlbmVyYXRlZCBTZXJ2ZXIgQ2VydGlmaWNhdGUwHQYD
VR0OBBYEFFM/7V0JB7Nle6tFySRbCXeACpbtMHQGA1UdIwRtMGuAFPSnwMyRRq9k
85HyJ/jIsm+KhzJzoUikRjBEMQswCQYDVQQGEwJERTEPMA0GA1UECAwGSGVzc2Vu
MRQwEgYDVQQKDAtwcml2YWN5aWRlYTEOMAwGA1UEAwwFQ0EwMDGCCQD7yOusg80S
BzATBgNVHSUEDDAKBggrBgEFBQcDATANBgkqhkiG9w0BAQUFAAOCAQEAf3xSiZQ7
7RYUKut00ZX1gRM7+AJlnbAc9LwbkrxTquZARoys9qtPxqxF+Kf/EsIIlm1fZTHb
PqoS4HAoxd0ST9PUj8XNHNl7jGb9ouDdJuXB1yt9rIPc3pvjoEwvelfP25W701Ap
fjo2xFyWs2moPdqyWRC8XzxrLv4qFP5PoWkxXA1J+eNKr6HLWN1nsA0bskbAqArg
GbJl5WwJMXlxBAKA7ap+nuFoPYFYuG2ZaBfzKmw8Rpp550cJdMC4uphpkY/Qb61I
G4Sx0WtuiIES7afZfM//LSKswuO9ccEet4qskPXe97fDkKVWhhM8toYLqSxdYnVC
bjq+lhulxmT9lA==
-----END CERTIFICATE-----
