Certificate:
    Data:
        Version: 3 (0x2)
        Serial Number: 268435679 (0x100000df)
    Signature Algorithm: sha256WithRSAEncryption
        Issuer: C=DE, ST=Hessen, O=privacyidea, CN=CA001
        Validity
            Not Before: Aug 30 16:06:34 2018 GMT
            Not After : Aug 30 16:06:34 2019 GMT
        Subject: C=DE, ST=Hessen, O=privacyidea, CN=requester.localdomain
        Subject Public Key Info:
            Public Key Algorithm: rsaEncryption
                Public-Key: (2048 bit)
                Modulus:
                    00:cd:be:14:4f:fa:ce:01:3f:42:22:1b:1d:9c:af:
                    dd:92:d2:7f:db:6c:b7:3e:39:43:43:6b:13:03:f1:
                    05:f4:07:74:bc:76:69:28:0b:af:19:8e:d7:fc:e3:
                    cd:c6:58:f2:ca:7f:08:6d:53:fc:07:02:44:24:c6:
                    b4:34:4c:8c:04:fe:33:0e:40:e2:20:ba:02:73:5a:
                    f7:f5:4f:63:6e:cc:c6:b6:df:54:1d:37:39:7d:51:
                    36:26:5f:bd:dc:3f:a8:8b:6b:a2:ae:b6:9d:d6:21:
                    e7:df:41:b8:7a:28:2a:68:48:ca:a8:2d:ed:e1:e9:
                    46:5e:5a:72:6d:b4:84:38:87:91:fd:94:11:0b:28:
                    84:c6:c2:2f:2a:fb:01:f9:36:7a:09:75:d1:33:88:
                    3c:73:41:5b:c8:bf:94:89:70:a1:f0:c0:b9:2e:50:
                    53:1e:b1:17:64:69:f4:2d:81:e0:a9:0d:0e:32:e9:
                    ba:55:8a:85:f1:1b:6f:49:79:b4:7f:88:c3:0d:3e:
                    54:88:9b:3d:1f:38:8c:04:f3:ee:6a:63:2b:f5:c6:
                    db:b4:83:aa:c4:78:41:3a:7d:4b:e1:c8:3e:71:ca:
                    1b:61:59:ea:c6:c4:ca:32:5e:c9:e9:bf:12:29:e6:
                    c6:c3:63:fe:a0:55:da:7a:f1:60:98:4d:26:ed:fa:
                    70:2d
                Exponent: 65537 (0x10001)
        X509v3 extensions:
            X509v3 Key Usage: 
                Digital Signature, Key Encipherment
            X509v3 Basic Constraints: 
                CA:FALSE
            Netscape Cert Type: 
                SSL Server
            Netscape Comment: 
                OpenSSL Generated Server Certificate
            X509v3 Subject Key Identifier: 
                53:3F:ED:5D:09:07:B3:65:7B:AB:45:C9:24:5B:09:77:80:0A:96:ED
            X509v3 Authority Key Identifier: 
                keyid:F4:A7:C0:CC:91:46:AF:64:F3:91:F2:27:F8:C8:B2:6F:8A:87:32:73
                DirName:/C=DE/ST=Hessen/O=privacyidea/CN=CA001
                serial:FB:C8:EB:AC:83:CD:12:07

            X509v3 Extended Key Usage: 
                TLS Web Server Authentication
    Signature Algorithm: sha256WithRSAEncryption
         04:c1:bf:0a:e7:c2:b8:00:87:07:11:4e:16:13:04:f4:11:10:
         13:ee:50:21:94:f0:af:7c:fe:cb:92:91:4d:6a:6f:50:8d:3c:
         52:3b:be:14:d3:68:ee:22:8b:21:21:32:84:d0:69:98:eb:9f:
         bb:fa:d3:48:c6:3a:9d:49:52:a7:9d:c4:e4:a7:9b:a7:19:96:
         b0:20:f8:e8:fb:66:f8:9c:46:51:05:47:d7:e7:8f:31:6e:e3:
         be:96:46:2a:a5:de:6f:dd:c0:5f:15:ec:47:e2:1e:cc:73:59:
         68:8e:35:22:d9:10:20:63:b7:5f:92:3d:26:9c:8d:99:d7:4f:
         9f:8e:f3:45:67:6b:b5:9b:ea:d7:c1:4f:99:1f:20:0b:98:65:
         9a:df:f3:40:35:5f:2e:b1:60:34:77:eb:04:e2:0b:e0:72:d3:
         62:17:82:52:a2:3c:2d:f1:22:6f:84:3f:b5:37:71:3d:06:67:
         97:b0:bc:f5:92:93:5c:e5:95:0c:08:a0:60:1d:80:39:2b:ee:
         72:15:5e:c7:12:6a:d1:31:a2:a6:1c:40:cf:3c:54:94:d7:24:
         c0:73:61:26:d1:ca:cf:d0:ce:f7:47:ce:b1:fc:87:8f:0d:be:
         30:76:0e:73:a9:be:3c:cf:05:45:c0:ff:1f:32:9d:4a:b6:93:
         77:4c:24:9e
-----BEGIN CERTIFICATE-----
MIIEJjCCAw6gAwIBAgIEEAAA3zANBgkqhkiG9w0BAQsFADBEMQswCQYDVQQGEwJE
RTEPMA0GA1UECAwGSGVzc2VuMRQwEgYDVQQKDAtwcml2YWN5aWRlYTEOMAwGA1UE
AwwFQ0EwMDEwHhcNMTgwODMwMTYwNjM0WhcNMTkwODMwMTYwNjM0WjBUMQswCQYD
VQQGEwJERTEPMA0GA1UECAwGSGVzc2VuMRQwEgYDVQQKDAtwcml2YWN5aWRlYTEe
MBwGA1UEAwwVcmVxdWVzdGVyLmxvY2FsZG9tYWluMIIBIjANBgkqhkiG9w0BAQEF
AAOCAQ8AMIIBCgKCAQEAzb4UT/rOAT9CIhsdnK/dktJ/22y3PjlDQ2sTA/EF9Ad0
vHZpKAuvGY7X/OPNxljyyn8IbVP8BwJEJMa0NEyMBP4zDkDiILoCc1r39U9jbszG
tt9UHTc5fVE2Jl+93D+oi2uirrad1iHn30G4eigqaEjKqC3t4elGXlpybbSEOIeR
/ZQRCyiExsIvKvsB+TZ6CXXRM4g8c0FbyL+UiXCh8MC5LlBTHrEXZGn0LYHgqQ0O
Mum6VYqF8RtvSXm0f4jDDT5UiJs9HziMBPPuamMr9cbbtIOqxHhBOn1L4cg+ccob
YVnqxsTKMl7J6b8SKebGw2P+oFXaevFgmE0m7fpwLQIDAQABo4IBDjCCAQowCwYD
VR0PBAQDAgWgMAkGA1UdEwQCMAAwEQYJYIZIAYb4QgEBBAQDAgZAMDMGCWCGSAGG
+EIBDQQmFiRPcGVuU1NMIEdlbmVyYXRlZCBTZXJ2ZXIgQ2VydGlmaWNhdGUwHQYD
VR0OBBYEFFM/7V0JB7Nle6tFySRbCXeACpbtMHQGA1UdIwRtMGuAFPSnwMyRRq9k
85HyJ/jIsm+KhzJzoUikRjBEMQswCQYDVQQGEwJERTEPMA0GA1UECAwGSGVzc2Vu
MRQwEgYDVQQKDAtwcml2YWN5aWRlYTEOMAwGA1UEAwwFQ0EwMDGCCQD7yOusg80S
BzATBgNVHSUEDDAKBggrBgEFBQcDATANBgkqhkiG9w0BAQsFAAOCAQEABMG/CufC
uACHBxFOFhME9BEQE+5QIZTwr3z+y5KRTWpvUI08Uju+FNNo7iKLISEyhNBpmOuf
u/rTSMY6nUlSp53E5KebpxmWsCD46Ptm+JxGUQVH1+ePMW7jvpZGKqXeb93AXxXs
R+IezHNZaI41ItkQIGO3X5I9JpyNmddPn47zRWdrtZvq18FPmR8gC5hlmt/zQDVf
LrFgNHfrBOIL4HLTYheCUqI8LfEib4Q/tTdxPQZnl7C89ZKTXOWVDAigYB2AOSvu
chVexxJq0TGiphxAzzxUlNckwHNhJtHKz9DO90fOsfyHjw2+MHYOc6m+PM8FRcD/
HzKdSraTd0wkng==
-----END CERTIFICATE-----
