Certificate:
    Data:
        Version: 3 (0x2)
        Serial Number: 268435716 (0x10000104)
    Signature Algorithm: sha1WithRSAEncryption
        Issuer: C=DE, ST=Hessen, O=privacyidea, CN=CA001
        Validity
            Not Before: Apr 26 14:15:15 2016 GMT
            Not After : Apr 26 14:15:15 2017 GMT
        Subject: OU=local, CN=corny/emailAddress=corny@cornelinux.de
        Subject Public Key Info:
            Public Key Algorithm: rsaEncryption
                Public-Key: (2048 bit)
                Modulus:
                    00:ac:de:09:06:b4:d3:7a:07:d2:d0:53:ee:b0:80:
                    59:0b:ff:36:3f:bb:1f:6e:25:3b:27:db:c1:f5:98:
                    3e:43:d3:6d:e5:00:b7:a8:3c:eb:c3:b9:27:73:9e:
                    1f:f4:bd:9f:e8:2a:c1:94:37:89:8b:39:71:87:33:
                    75:e1:3d:f5:e6:82:03:a6:b2:50:48:d9:f7:62:74:
                    5c:6c:bd:b0:ad:13:cb:8f:80:51:b2:85:50:39:59:
                    99:b1:ab:ce:90:2b:da:92:28:3f:d5:a2:5a:62:15:
                    e2:99:d8:1c:00:10:8f:47:3a:99:ff:1a:86:5e:f5:
                    3a:cc:9e:74:13:a5:50:dd:08:8f:ee:38:09:c1:50:
                    a0:af:db:d5:e1:74:13:2e:ef:f2:9e:ba:63:f7:a3:
                    f9:04:08:78:ed:76:8b:85:76:74:6d:7f:a3:cb:1c:
                    76:2f:b2:33:e2:a2:89:4a:07:5c:45:f2:a5:12:e7:
                    d9:f5:a9:04:94:1f:f4:46:c7:85:c5:75:ab:c3:7d:
                    7b:41:30:71:93:aa:4b:01:21:d0:a0:cb:77:d8:74:
                    cf:d4:7b:fb:7c:59:3a:99:67:6b:6b:59:1e:58:b4:
                    1b:99:b5:63:81:03:5b:2d:5d:3c:3d:4c:e2:31:e7:
                    9d:07:f4:a6:0e:b2:e9:7f:35:c0:1d:ad:cf:a8:69:
                    7d:17
                Exponent: 65537 (0x10001)
        X509v3 extensions:
            X509v3 Key Usage: 
                Digital Signature, Key Encipherment
            X509v3 Basic Constraints: 
                CA:FALSE
            Netscape Cert Type: 
                SSL Server
            Netscape Comment: 
                OpenSSL Generated Server Certificate
            X509v3 Subject Key Identifier: 
                8F:CC:F6:66:B8:A4:EF:19:14:05:6D:D6:75:B5:DD:73:DC:8A:D5:11
            X509v3 Authority Key Identifier: 
                keyid:F4:A7:C0:CC:91:46:AF:64:F3:91:F2:27:F8:C8:B2:6F:8A:87:32:73
                DirName:/C=DE/ST=Hessen/O=privacyidea/CN=CA001
                serial:FB:C8:EB:AC:83:CD:12:07

            X509v3 Extended Key Usage: 
                TLS Web Server Authentication
    Signature Algorithm: sha1WithRSAEncryption
         a4:67:82:ac:d3:1d:b2:3d:fc:bd:fa:bd:06:6c:e9:40:c1:38:
         0a:77:a8:fa:a4:5a:06:97:50:2b:3e:09:5c:52:f0:14:0a:ff:
         5a:7a:3e:cf:82:58:5e:6d:46:8e:11:3f:d4:65:3a:17:e3:b9:
         3c:fc:10:ae:07:cf:17:82:23:26:ae:8b:d8:84:cf:fe:7d:25:
         93:a0:f4:b8:ae:e1:ac:83:ba:74:b1:b5:03:72:d8:82:4e:d4:
         bf:f4:f9:46:c6:37:cf:ae:37:5b:ba:02:ef:8e:9e:80:08:7f:
         02:0f:a2:7d:44:17:97:fc:bf:7f:c6:04:79:a8:51:19:d6:08:
         f6:b8:81:9c:f7:6d:43:bb:fb:50:79:d4:65:63:6e:d9:99:25:
         58:78:5a:e6:a5:10:44:3f:3c:0d:78:78:18:99:b5:d1:9f:40:
         bb:26:d5:f7:b9:89:dc:e7:e7:9e:0f:88:40:ca:ce:43:d9:a7:
         aa:6b:21:4e:12:b4:ac:9e:6c:ab:13:8e:88:ec:f2:aa:fd:8e:
         e2:6e:f1:27:dd:0c:ed:d1:5f:b5:b2:98:b1:f1:b8:a1:b4:50:
         63:60:f0:17:cb:46:19:d2:8d:e6:b1:af:e8:ad:2d:94:c6:2c:
         db:e9:08:c3:37:90:5f:26:66:60:8f:79:92:85:c4:b8:42:3a:
         21:36:b2:43
-----BEGIN CERTIFICATE-----
MIIEFjCCAv6gAwIBAgIEEAABBDANBgkqhkiG9w0BAQUFADBEMQswCQYDVQQGEwJE
RTEPMA0GA1UECAwGSGVzc2VuMRQwEgYDVQQKDAtwcml2YWN5aWRlYTEOMAwGA1UE
AwwFQ0EwMDEwHhcNMTYwNDI2MTQxNTE1WhcNMTcwNDI2MTQxNTE1WjBEMQ4wDAYD
VQQLEwVsb2NhbDEOMAwGA1UEAxMFY29ybnkxIjAgBgkqhkiG9w0BCQEWE2Nvcm55
QGNvcm5lbGludXguZGUwggEiMA0GCSqGSIb3DQEBAQUAA4IBDwAwggEKAoIBAQCs
3gkGtNN6B9LQU+6wgFkL/zY/ux9uJTsn28H1mD5D023lALeoPOvDuSdznh/0vZ/o
KsGUN4mLOXGHM3XhPfXmggOmslBI2fdidFxsvbCtE8uPgFGyhVA5WZmxq86QK9qS
KD/VolpiFeKZ2BwAEI9HOpn/GoZe9TrMnnQTpVDdCI/uOAnBUKCv29XhdBMu7/Ke
umP3o/kECHjtdouFdnRtf6PLHHYvsjPioolKB1xF8qUS59n1qQSUH/RGx4XFdavD
fXtBMHGTqksBIdCgy3fYdM/Ue/t8WTqZZ2trWR5YtBuZtWOBA1stXTw9TOIx550H
9KYOsul/NcAdrc+oaX0XAgMBAAGjggEOMIIBCjALBgNVHQ8EBAMCBaAwCQYDVR0T
BAIwADARBglghkgBhvhCAQEEBAMCBkAwMwYJYIZIAYb4QgENBCYWJE9wZW5TU0wg
R2VuZXJhdGVkIFNlcnZlciBDZXJ0aWZpY2F0ZTAdBgNVHQ4EFgQUj8z2Zrik7xkU
BW3WdbXdc9yK1REwdAYDVR0jBG0wa4AU9KfAzJFGr2TzkfIn+Miyb4qHMnOhSKRG
MEQxCzAJBgNVBAYTAkRFMQ8wDQYDVQQIDAZIZXNzZW4xFDASBgNVBAoMC3ByaXZh
Y3lpZGVhMQ4wDAYDVQQDDAVDQTAwMYIJAPvI66yDzRIHMBMGA1UdJQQMMAoGCCsG
AQUFBwMBMA0GCSqGSIb3DQEBBQUAA4IBAQCkZ4Ks0x2yPfy9+r0GbOlAwTgKd6j6
pFoGl1ArPglcUvAUCv9aej7PglhebUaOET/UZToX47k8/BCuB88XgiMmrovYhM/+
fSWToPS4ruGsg7p0sbUDctiCTtS/9PlGxjfPrjdbugLvjp6ACH8CD6J9RBeX/L9/
xgR5qFEZ1gj2uIGc921Du/tQedRlY27ZmSVYeFrmpRBEPzwNeHgYmbXRn0C7JtX3
uYnc5+eeD4hAys5D2aeqayFOErSsnmyrE46I7PKq/Y7ibvEn3Qzt0V+1spix8bih
tFBjYPAXy0YZ0o3msa/orS2Uxizb6QjDN5BfJmZgj3mShcS4QjohNrJD
-----END CERTIFICATE-----
