Certificate:
    Data:
        Version: 3 (0x2)
        Serial Number: 268435690 (0x100000ea)
    Signature Algorithm: sha256WithRSAEncryption
        Issuer: C=DE, ST=Hessen, O=privacyidea, CN=CA001
        Validity
            Not Before: Apr 27 16:15:22 2017 GMT
            Not After : Apr 27 16:15:22 2018 GMT
        Subject: C=DE, ST=Hessen, O=privacyidea, CN=requester.localdomain
        Subject Public Key Info:
            Public Key Algorithm: rsaEncryption
                Public-Key: (2048 bit)
                Modulus:
                    00:cd:be:14:4f:fa:ce:01:3f:42:22:1b:1d:9c:af:
                    dd:92:d2:7f:db:6c:b7:3e:39:43:43:6b:13:03:f1:
                    05:f4:07:74:bc:76:69:28:0b:af:19:8e:d7:fc:e3:
                    cd:c6:58:f2:ca:7f:08:6d:53:fc:07:02:44:24:c6:
                    b4:34:4c:8c:04:fe:33:0e:40:e2:20:ba:02:73:5a:
                    f7:f5:4f:63:6e:cc:c6:b6:df:54:1d:37:39:7d:51:
                    36:26:5f:bd:dc:3f:a8:8b:6b:a2:ae:b6:9d:d6:21:
                    e7:df:41:b8:7a:28:2a:68:48:ca:a8:2d:ed:e1:e9:
                    46:5e:5a:72:6d:b4:84:38:87:91:fd:94:11:0b:28:
                    84:c6:c2:2f:2a:fb:01:f9:36:7a:09:75:d1:33:88:
                    3c:73:41:5b:c8:bf:94:89:70:a1:f0:c0:b9:2e:50:
                    53:1e:b1:17:64:69:f4:2d:81:e0:a9:0d:0e:32:e9:
                    ba:55:8a:85:f1:1b:6f:49:79:b4:7f:88:c3:0d:3e:
                    54:88:9b:3d:1f:38:8c:04:f3:ee:6a:63:2b:f5:c6:
                    db:b4:83:aa:c4:78:41:3a:7d:4b:e1:c8:3e:71:ca:
                    1b:61:59:ea:c6:c4:ca:32:5e:c9:e9:bf:12:29:e6:
                    c6:c3:63:fe:a0:55:da:7a:f1:60:98:4d:26:ed:fa:
                    70:2d
                Exponent: 65537 (0x10001)
        X509v3 extensions:
            X509v3 Key Usage: 
                Digital Signature, Key Encipherment
            X509v3 Basic Constraints: 
                CA:FALSE
            Netscape Cert Type: 
                SSL Server
            Netscape Comment: 
                OpenSSL Generated Server Certificate
            X509v3 Subject Key Identifier: 
                53:3F:ED:5D:09:07:B3:65:7B:AB:45:C9:24:5B:09:77:80:0A:96:ED
            X509v3 Authority Key Identifier: 
                keyid:F4:A7:C0:CC:91:46:AF:64:F3:91:F2:27:F8:C8:B2:6F:8A:87:32:73
                DirName:/C=DE/ST=Hessen/O=privacyidea/CN=CA001
                serial:FB:C8:EB:AC:83:CD:12:07

            X509v3 Extended Key Usage: 
                TLS Web Server Authentication
    Signature Algorithm: sha256WithRSAEncryption
         b8:28:7a:d0:b0:86:45:8d:73:37:65:7c:71:6d:81:9a:9f:38:
         e4:5a:42:bb:7e:aa:7f:cf:8b:c1:9e:16:47:80:22:1f:25:2c:
         72:be:af:27:ff:8b:47:ab:a0:29:f9:ab:2a:16:1f:e5:b5:a3:
         19:c0:46:6d:da:63:70:3e:2d:00:be:cc:4f:9a:cf:7b:d2:f0:
         eb:2f:1c:8a:90:a2:5f:2d:8e:85:17:2f:f0:fe:ad:22:67:88:
         d1:79:9e:98:ae:47:d6:56:6c:2a:0e:89:6f:26:bc:62:0a:c4:
         0b:de:e7:fb:ec:6c:aa:56:29:10:57:8a:4a:d5:92:f7:4b:5a:
         b2:2c:8c:b7:bf:5c:5c:d1:8f:59:0f:79:15:60:a2:1f:08:f9:
         02:32:2c:1b:a0:f6:1d:c7:1a:4b:61:70:b9:8b:2b:69:f3:94:
         4d:5d:c3:9a:03:0e:39:6b:2c:0a:bc:6a:a3:e4:22:32:71:73:
         69:d4:ff:0e:5f:62:43:1a:b7:9a:3e:e2:77:86:e3:5a:35:49:
         79:79:7e:1f:be:19:2b:f8:25:ca:89:3d:f6:d6:cd:90:cf:b9:
         35:fc:08:0c:d5:cd:d2:03:33:d7:62:f8:a9:4c:27:e0:e0:52:
         30:55:04:c5:ad:a4:70:99:2e:cb:1f:ad:f0:cf:bd:00:a9:df:
         17:c2:cd:2d
-----BEGIN CERTIFICATE-----
MIIEJjCCAw6gAwIBAgIEEAAA6jANBgkqhkiG9w0BAQsFADBEMQswCQYDVQQGEwJE
RTEPMA0GA1UECAwGSGVzc2VuMRQwEgYDVQQKDAtwcml2YWN5aWRlYTEOMAwGA1UE
AwwFQ0EwMDEwHhcNMTcwNDI3MTYxNTIyWhcNMTgwNDI3MTYxNTIyWjBUMQswCQYD
VQQGEwJERTEPMA0GA1UECAwGSGVzc2VuMRQwEgYDVQQKDAtwcml2YWN5aWRlYTEe
MBwGA1UEAwwVcmVxdWVzdGVyLmxvY2FsZG9tYWluMIIBIjANBgkqhkiG9w0BAQEF
AAOCAQ8AMIIBCgKCAQEAzb4UT/rOAT9CIhsdnK/dktJ/22y3PjlDQ2sTA/EF9Ad0
vHZpKAuvGY7X/OPNxljyyn8IbVP8BwJEJMa0NEyMBP4zDkDiILoCc1r39U9jbszG
tt9UHTc5fVE2Jl+93D+oi2uirrad1iHn30G4eigqaEjKqC3t4elGXlpybbSEOIeR
/ZQRCyiExsIvKvsB+TZ6CXXRM4g8c0FbyL+UiXCh8MC5LlBTHrEXZGn0LYHgqQ0O
Mum6VYqF8RtvSXm0f4jDDT5UiJs9HziMBPPuamMr9cbbtIOqxHhBOn1L4cg+ccob
YVnqxsTKMl7J6b8SKebGw2P+oFXaevFgmE0m7fpwLQIDAQABo4IBDjCCAQowCwYD
VR0PBAQDAgWgMAkGA1UdEwQCMAAwEQYJYIZIAYb4QgEBBAQDAgZAMDMGCWCGSAGG
+EIBDQQmFiRPcGVuU1NMIEdlbmVyYXRlZCBTZXJ2ZXIgQ2VydGlmaWNhdGUwHQYD
VR0OBBYEFFM/7V0JB7Nle6tFySRbCXeACpbtMHQGA1UdIwRtMGuAFPSnwMyRRq9k
85HyJ/jIsm+KhzJzoUikRjBEMQswCQYDVQQGEwJERTEPMA0GA1UECAwGSGVzc2Vu
MRQwEgYDVQQKDAtwcml2YWN5aWRlYTEOMAwGA1UEAwwFQ0EwMDGCCQD7yOusg80S
BzATBgNVHSUEDDAKBggrBgEFBQcDATANBgkqhkiG9w0BAQsFAAOCAQEAuCh60LCG
RY1zN2V8cW2Bmp845FpCu36qf8+LwZ4WR4AiHyUscr6vJ/+LR6ugKfmrKhYf5bWj
GcBGbdpjcD4tAL7MT5rPe9Lw6y8cipCiXy2OhRcv8P6tImeI0XmemK5H1lZsKg6J
bya8YgrEC97n++xsqlYpEFeKStWS90tasiyMt79cXNGPWQ95FWCiHwj5AjIsG6D2
HccaS2FwuYsrafOUTV3DmgMOOWssCrxqo+QiMnFzadT/Dl9iQxq3mj7id4bjWjVJ
eXl+H74ZK/glyok99tbNkM+5NfwIDNXN0gMz12L4qUwn4OBSMFUExa2kcJkuyx+t
8M+9AKnfF8LNLQ==
-----END CERTIFICATE-----
