Certificate:
    Data:
        Version: 3 (0x2)
        Serial Number: 268435688 (0x100000e8)
    Signature Algorithm: sha256WithRSAEncryption
        Issuer: C=DE, ST=Hessen, O=privacyidea, CN=CA001
        Validity
            Not Before: Sep  7 14:07:17 2017 GMT
            Not After : Sep  7 14:07:17 2018 GMT
        Subject: OU=realm1, CN=cornelius/emailAddress=user@localhost.localdomain
        Subject Public Key Info:
            Public Key Algorithm: rsaEncryption
                Public-Key: (2048 bit)
                Modulus:
                    00:9b:be:8a:44:71:12:34:bf:01:20:31:e5:23:f9:
                    4a:a7:a0:f0:48:cf:db:42:9c:84:5d:e7:7f:38:95:
                    d9:a1:a1:1d:c7:77:c7:a4:5d:84:f1:2e:c5:5c:53:
                    c5:95:94:62:9e:d8:b6:44:6d:dc:c8:06:ec:b4:14:
                    e0:1f:4b:8c:0d:6d:13:47:0e:a3:de:2f:15:d6:62:
                    d8:08:31:93:e9:89:6c:c1:a6:1f:de:20:f0:15:4f:
                    d3:a2:cf:28:3c:b4:9f:e0:83:60:4c:ba:e6:d0:47:
                    4b:04:26:2d:2a:d8:85:b6:af:3b:ea:1f:f5:d1:69:
                    51:08:c1:2b:20:df:9e:d0:b3:74:91:af:44:70:de:
                    57:51:67:96:9f:18:46:ee:60:07:19:c9:5c:1d:5e:
                    63:cb:86:4b:58:7c:89:e2:52:4a:58:fb:59:77:60:
                    6a:18:b9:76:a6:3c:e9:34:a5:17:ae:5c:1b:08:e2:
                    f5:0c:30:6e:b1:fd:d1:ad:30:e9:ac:25:64:c6:94:
                    b1:84:be:e6:7d:38:ed:12:7f:ed:d6:d2:d1:a0:12:
                    3b:30:a4:cc:45:7f:1b:d6:de:69:39:0b:25:8d:74:
                    a7:a4:87:28:38:47:0d:f0:88:db:09:14:87:2f:4d:
                    1e:51:ff:39:99:d9:d6:9a:2d:83:5d:27:45:6f:f3:
                    06:2b
                Exponent: 65537 (0x10001)
        X509v3 extensions:
            X509v3 Key Usage: 
                Digital Signature, Key Encipherment
            X509v3 Basic Constraints: 
                CA:FALSE
            Netscape Cert Type: 
                SSL Server
            Netscape Comment: 
                OpenSSL Generated Server Certificate
            X509v3 Subject Key Identifier: 
                AD:2C:F5:62:2B:AC:C5:BE:18:A2:EB:5A:A3:A3:E9:E8:CC:1B:55:60
            X509v3 Authority Key Identifier: 
                keyid:F4:A7:C0:CC:91:46:AF:64:F3:91:F2:27:F8:C8:B2:6F:8A:87:32:73
                DirName:/C=DE/ST=Hessen/O=privacyidea/CN=CA001
                serial:FB:C8:EB:AC:83:CD:12:07

            X509v3 Extended Key Usage: 
                TLS Web Server Authentication
    Signature Algorithm: sha256WithRSAEncryption
         47:1a:b1:0d:78:12:71:ae:46:ed:92:18:a4:22:78:94:31:fb:
         49:ee:9b:0f:92:46:36:c4:96:5d:78:f1:0d:b6:74:b5:c5:a9:
         3c:3b:a5:ac:2d:da:ac:a8:57:7d:de:d4:cc:86:62:d3:d8:de:
         ed:9d:70:34:d9:f8:c9:c8:3e:99:3c:41:ac:fb:98:2c:40:b0:
         af:fe:06:f5:53:be:8c:d2:ec:8c:4f:4d:4d:4e:cd:ff:3a:66:
         84:1c:4c:ed:49:cc:32:33:ba:4a:5e:d2:7b:c5:03:db:9e:ee:
         89:e0:d4:71:da:ea:4f:5b:41:85:06:10:db:45:98:46:be:62:
         63:26:e1:18:77:46:7a:a3:4c:47:75:b6:ae:45:c3:c6:80:e4:
         c0:fa:69:ac:26:27:cd:e6:08:c2:7d:57:61:8f:a5:bd:bd:dd:
         66:12:0d:2d:02:50:96:01:89:a9:31:b1:3e:e4:78:d9:a3:5b:
         1c:73:e8:37:97:e1:97:a9:bd:56:8e:60:8f:d7:91:61:7d:95:
         92:a3:88:f6:4c:7b:29:07:8c:2b:61:76:ef:cd:fa:88:86:f5:
         6b:ca:9d:96:3a:10:c3:81:9f:b4:3e:57:1a:50:52:ba:c3:51:
         3a:0c:43:cc:5a:56:05:55:8f:07:76:f0:1e:24:03:1a:ef:ab:
         78:25:f4:27
-----BEGIN CERTIFICATE-----
MIIEIjCCAwqgAwIBAgIEEAAA6DANBgkqhkiG9w0BAQsFADBEMQswCQYDVQQGEwJE
RTEPMA0GA1UECAwGSGVzc2VuMRQwEgYDVQQKDAtwcml2YWN5aWRlYTEOMAwGA1UE
AwwFQ0EwMDEwHhcNMTcwOTA3MTQwNzE3WhcNMTgwOTA3MTQwNzE3WjBQMQ8wDQYD
VQQLDAZyZWFsbTExEjAQBgNVBAMMCWNvcm5lbGl1czEpMCcGCSqGSIb3DQEJARYa
dXNlckBsb2NhbGhvc3QubG9jYWxkb21haW4wggEiMA0GCSqGSIb3DQEBAQUAA4IB
DwAwggEKAoIBAQCbvopEcRI0vwEgMeUj+UqnoPBIz9tCnIRd5384ldmhoR3Hd8ek
XYTxLsVcU8WVlGKe2LZEbdzIBuy0FOAfS4wNbRNHDqPeLxXWYtgIMZPpiWzBph/e
IPAVT9Oizyg8tJ/gg2BMuubQR0sEJi0q2IW2rzvqH/XRaVEIwSsg357Qs3SRr0Rw
3ldRZ5afGEbuYAcZyVwdXmPLhktYfIniUkpY+1l3YGoYuXamPOk0pReuXBsI4vUM
MG6x/dGtMOmsJWTGlLGEvuZ9OO0Sf+3W0tGgEjswpMxFfxvW3mk5CyWNdKekhyg4
Rw3wiNsJFIcvTR5R/zmZ2daaLYNdJ0Vv8wYrAgMBAAGjggEOMIIBCjALBgNVHQ8E
BAMCBaAwCQYDVR0TBAIwADARBglghkgBhvhCAQEEBAMCBkAwMwYJYIZIAYb4QgEN
BCYWJE9wZW5TU0wgR2VuZXJhdGVkIFNlcnZlciBDZXJ0aWZpY2F0ZTAdBgNVHQ4E
FgQUrSz1Yiusxb4Youtao6Pp6MwbVWAwdAYDVR0jBG0wa4AU9KfAzJFGr2TzkfIn
+Miyb4qHMnOhSKRGMEQxCzAJBgNVBAYTAkRFMQ8wDQYDVQQIDAZIZXNzZW4xFDAS
BgNVBAoMC3ByaXZhY3lpZGVhMQ4wDAYDVQQDDAVDQTAwMYIJAPvI66yDzRIHMBMG
A1UdJQQMMAoGCCsGAQUFBwMBMA0GCSqGSIb3DQEBCwUAA4IBAQBHGrENeBJxrkbt
khikIniUMftJ7psPkkY2xJZdePENtnS1xak8O6WsLdqsqFd93tTMhmLT2N7tnXA0
2fjJyD6ZPEGs+5gsQLCv/gb1U76M0uyMT01NTs3/OmaEHEztScwyM7pKXtJ7xQPb
nu6J4NRx2upPW0GFBhDbRZhGvmJjJuEYd0Z6o0xHdbauRcPGgOTA+mmsJifN5gjC
fVdhj6W9vd1mEg0tAlCWAYmpMbE+5HjZo1scc+g3l+GXqb1WjmCP15FhfZWSo4j2
THspB4wrYXbvzfqIhvVryp2WOhDDgZ+0PlcaUFK6w1E6DEPMWlYFVY8HdvAeJAMa
76t4JfQn
-----END CERTIFICATE-----
