Certificate:
    Data:
        Version: 3 (0x2)
        Serial Number: 268435707 (0x100000fb)
    Signature Algorithm: sha1WithRSAEncryption
        Issuer: C=DE, ST=Hessen, O=privacyidea, CN=CA001
        Validity
            Not Before: Feb 23 15:43:22 2017 GMT
            Not After : Feb 23 15:43:22 2018 GMT
        Subject: C=DE, ST=Hessen, O=privacyidea, CN=usercert
        Subject Public Key Info:
            Public Key Algorithm: rsaEncryption
                Public-Key: (2048 bit)
                Modulus:
                    00:dc:2f:d1:5f:29:97:d4:7c:c3:53:c8:30:bd:4b:
                    67:70:2c:24:6b:b8:5e:eb:21:7a:48:12:56:7c:81:
                    5c:48:75:b6:68:eb:f6:f2:98:4e:50:51:d1:7f:6c:
                    73:f3:0a:a7:ae:be:48:5e:e5:d6:e1:d9:2a:7c:32:
                    6e:4e:fd:08:f6:5a:54:49:23:73:c3:b9:07:18:d1:
                    ef:b3:ac:f8:8a:dc:94:96:a4:90:3a:8e:74:df:e6:
                    0d:37:1b:bd:5b:b7:25:1a:56:39:da:6f:91:aa:5e:
                    1c:74:f3:f9:7c:14:01:83:12:65:76:c7:bb:fe:36:
                    5b:95:e9:72:65:83:ed:3e:98:30:71:fa:87:dd:a3:
                    36:5a:30:03:2e:26:e0:61:d1:bf:02:3f:b6:06:1f:
                    4a:89:28:1c:5c:a2:ff:4e:be:94:e6:8c:e0:da:82:
                    f1:9d:29:32:48:30:73:b4:04:f6:42:1e:be:f7:e2:
                    32:32:27:3c:9d:89:2f:70:3e:85:9a:6f:5c:c5:09:
                    c0:8c:32:2f:72:22:c9:d2:95:1f:b6:ac:72:60:72:
                    b7:82:4d:6b:ce:5b:e3:00:d0:d2:2f:58:c6:e0:10:
                    e5:51:ca:4d:3b:2e:e6:7e:ab:84:d6:56:f1:93:35:
                    a0:93:64:26:81:75:2f:91:b5:16:06:38:0b:db:cc:
                    2d:07
                Exponent: 65537 (0x10001)
        X509v3 extensions:
            X509v3 Key Usage: 
                Digital Signature, Key Encipherment
            X509v3 Basic Constraints: 
                CA:FALSE
            Netscape Cert Type: 
                SSL Server
            Netscape Comment: 
                OpenSSL Generated Server Certificate
            X509v3 Subject Key Identifier: 
                FC:14:D1:F0:4B:8D:00:90:F2:F5:B8:71:9E:4E:97:C3:92:54:AD:0B
            X509v3 Authority Key Identifier: 
                keyid:F4:A7:C0:CC:91:46:AF:64:F3:91:F2:27:F8:C8:B2:6F:8A:87:32:73
                DirName:/C=DE/ST=Hessen/O=privacyidea/CN=CA001
                serial:FB:C8:EB:AC:83:CD:12:07

            X509v3 Extended Key Usage: 
                TLS Web Server Authentication
    Signature Algorithm: sha1WithRSAEncryption
         3e:d0:1e:a0:38:a5:c3:f4:5a:34:6e:fb:dd:d1:ef:bb:34:f1:
         a4:60:65:a7:1d:fc:4f:9a:a3:64:7f:b6:3b:ce:f4:46:50:9d:
         61:6b:47:96:4d:36:1b:7d:ef:14:84:e6:f9:01:b2:df:ac:0c:
         be:56:71:47:c9:db:be:c0:9b:ce:cd:cb:82:db:d1:94:5c:1b:
         06:a8:3c:e9:d6:65:fb:17:c0:28:99:18:40:5f:67:cc:4e:12:
         cf:59:86:30:8d:ec:34:80:55:f6:7a:52:2f:0b:61:71:b6:ea:
         49:70:61:44:6e:b3:b4:b7:75:8b:48:b7:ed:9a:f7:5b:bb:88:
         e8:f8:3d:47:26:b3:88:8a:19:74:e5:4a:47:4f:dc:4e:c3:5e:
         0d:f1:2d:88:0a:83:a1:54:eb:0c:ed:c7:60:c1:f4:c5:bf:f1:
         cb:29:04:dd:e0:a0:08:eb:17:d8:5b:9c:d2:20:39:aa:3d:81:
         b9:cd:3f:52:d0:2b:e5:c2:a3:76:54:46:9d:ef:ec:15:b4:6a:
         53:a8:68:07:87:a6:95:70:c8:de:a9:74:ca:dd:bf:32:8e:ad:
         98:17:09:30:56:08:3b:cb:9c:0b:f4:7f:d8:5e:6f:7b:93:fb:
         5d:47:24:12:a3:9e:67:05:ec:ba:39:13:d6:30:cd:b4:83:d1:
         aa:b1:70:1f
-----BEGIN CERTIFICATE-----
MIIEGTCCAwGgAwIBAgIEEAAA+zANBgkqhkiG9w0BAQUFADBEMQswCQYDVQQGEwJE
RTEPMA0GA1UECAwGSGVzc2VuMRQwEgYDVQQKDAtwcml2YWN5aWRlYTEOMAwGA1UE
AwwFQ0EwMDEwHhcNMTcwMjIzMTU0MzIyWhcNMTgwMjIzMTU0MzIyWjBHMQswCQYD
VQQGEwJERTEPMA0GA1UECAwGSGVzc2VuMRQwEgYDVQQKDAtwcml2YWN5aWRlYTER
MA8GA1UEAwwIdXNlcmNlcnQwggEiMA0GCSqGSIb3DQEBAQUAA4IBDwAwggEKAoIB
AQDcL9FfKZfUfMNTyDC9S2dwLCRruF7rIXpIElZ8gVxIdbZo6/bymE5QUdF/bHPz
Cqeuvkhe5dbh2Sp8Mm5O/Qj2WlRJI3PDuQcY0e+zrPiK3JSWpJA6jnTf5g03G71b
tyUaVjnab5GqXhx08/l8FAGDEmV2x7v+NluV6XJlg+0+mDBx+ofdozZaMAMuJuBh
0b8CP7YGH0qJKBxcov9OvpTmjODagvGdKTJIMHO0BPZCHr734jIyJzydiS9wPoWa
b1zFCcCMMi9yIsnSlR+2rHJgcreCTWvOW+MA0NIvWMbgEOVRyk07LuZ+q4TWVvGT
NaCTZCaBdS+RtRYGOAvbzC0HAgMBAAGjggEOMIIBCjALBgNVHQ8EBAMCBaAwCQYD
VR0TBAIwADARBglghkgBhvhCAQEEBAMCBkAwMwYJYIZIAYb4QgENBCYWJE9wZW5T
U0wgR2VuZXJhdGVkIFNlcnZlciBDZXJ0aWZpY2F0ZTAdBgNVHQ4EFgQU/BTR8EuN
AJDy9bhxnk6Xw5JUrQswdAYDVR0jBG0wa4AU9KfAzJFGr2TzkfIn+Miyb4qHMnOh
SKRGMEQxCzAJBgNVBAYTAkRFMQ8wDQYDVQQIDAZIZXNzZW4xFDASBgNVBAoMC3By
aXZhY3lpZGVhMQ4wDAYDVQQDDAVDQTAwMYIJAPvI66yDzRIHMBMGA1UdJQQMMAoG
CCsGAQUFBwMBMA0GCSqGSIb3DQEBBQUAA4IBAQA+0B6gOKXD9Fo0bvvd0e+7NPGk
YGWnHfxPmqNkf7Y7zvRGUJ1ha0eWTTYbfe8UhOb5AbLfrAy+VnFHydu+wJvOzcuC
29GUXBsGqDzp1mX7F8AomRhAX2fMThLPWYYwjew0gFX2elIvC2FxtupJcGFEbrO0
t3WLSLftmvdbu4jo+D1HJrOIihl05UpHT9xOw14N8S2ICoOhVOsM7cdgwfTFv/HL
KQTd4KAI6xfYW5zSIDmqPYG5zT9S0CvlwqN2VEad7+wVtGpTqGgHh6aVcMjeqXTK
3b8yjq2YFwkwVgg7y5wL9H/YXm97k/tdRyQSo55nBey6ORPWMM20g9GqsXAf
-----END CERTIFICATE-----
