Certificate:
    Data:
        Version: 3 (0x2)
        Serial Number: 268435687 (0x100000e7)
    Signature Algorithm: sha256WithRSAEncryption
        Issuer: C=DE, ST=Hessen, O=privacyidea, CN=CA001
        Validity
            Not Before: Jun  2 05:31:24 2018 GMT
            Not After : Jun  2 05:31:24 2019 GMT
        Subject: CN=selfservice,CN=user,O=realm1/emailAddress=meine
        Subject Public Key Info:
            Public Key Algorithm: rsaEncryption
                Public-Key: (2048 bit)
                Modulus:
                    00:cf:3c:d4:33:0e:12:c4:e6:da:cd:b6:56:a1:1c:
                    26:bb:26:1c:8a:4a:73:a8:58:8a:b6:1e:b3:8b:99:
                    d2:1d:07:c2:92:89:79:c0:69:d8:c8:df:28:61:98:
                    1e:b3:fe:ae:2b:bd:78:a9:f7:6e:47:dc:a3:a0:16:
                    8c:85:02:c1:4e:92:fd:72:6e:f0:c8:03:29:9b:b8:
                    00:6e:c0:83:95:c8:34:20:36:9c:b3:e5:e4:e6:76:
                    73:a3:1a:ad:40:96:e0:53:54:00:ec:76:79:9a:c6:
                    0d:7e:b6:bd:29:ec:83:f3:cb:89:a4:cb:6c:00:ba:
                    0c:c5:78:0f:ff:69:b8:94:f4:04:70:43:3f:d8:9e:
                    d7:a7:fb:5d:ce:75:8e:da:e7:c4:07:b1:9d:de:6f:
                    88:4b:b6:4d:9a:cf:f9:bc:fa:9f:cd:32:6d:f6:3a:
                    0b:0d:23:42:78:ec:97:42:bf:0e:4d:60:56:e1:d3:
                    02:f2:19:cb:84:57:90:e5:70:a1:a2:83:35:86:e2:
                    da:86:9f:f9:8a:c4:79:b3:52:28:da:cb:bb:34:ca:
                    d3:da:91:4a:cf:8d:76:a2:b2:6b:9b:f9:96:fd:09:
                    2a:da:11:23:4d:f0:cb:d6:b2:b1:0e:12:6c:9a:19:
                    65:98:87:ca:e4:ee:24:ce:44:ac:90:8f:9d:1b:c5:
                    2a:9d
                Exponent: 65537 (0x10001)
        X509v3 extensions:
            X509v3 Key Usage: 
                Digital Signature, Key Encipherment
            X509v3 Basic Constraints: 
                CA:FALSE
            Netscape Cert Type: 
                SSL Server
            Netscape Comment: 
                OpenSSL Generated Server Certificate
            X509v3 Subject Key Identifier: 
                4D:07:90:AD:FF:1D:0D:E7:1A:DD:D6:2E:FA:BA:34:CB:AA:1F:24:C6
            X509v3 Authority Key Identifier: 
                keyid:F4:A7:C0:CC:91:46:AF:64:F3:91:F2:27:F8:C8:B2:6F:8A:87:32:73
                DirName:/C=DE/ST=Hessen/O=privacyidea/CN=CA001
                serial:FB:C8:EB:AC:83:CD:12:07

            X509v3 Extended Key Usage: 
                TLS Web Server Authentication
    Signature Algorithm: sha256WithRSAEncryption
         22:25:e5:e8:5a:36:56:bd:d0:61:7f:86:80:19:5d:39:52:7a:
         2f:d6:d0:06:c8:91:1e:62:8a:a7:80:ac:61:4b:7f:e0:d4:b8:
         b9:87:fb:8d:3f:37:cf:49:25:52:95:9c:94:fe:81:c3:29:44:
         f1:eb:a2:83:ed:3e:ca:c4:90:d5:a2:09:af:83:a3:09:ff:e2:
         d0:b4:33:a1:84:25:5d:74:56:47:a7:8c:75:3d:7b:71:12:28:
         3f:6b:4e:dc:5d:bf:42:a2:66:08:d2:71:0e:4d:3b:b7:6b:1a:
         88:76:69:fc:4f:ee:a9:9d:46:f7:db:61:fb:75:f7:7c:24:3e:
         68:e0:7d:7a:24:b4:b4:1d:5e:10:38:14:b3:f0:0d:9c:85:bb:
         2c:3d:44:82:48:6d:d4:fd:6f:2c:04:db:1e:b9:99:7f:fe:c7:
         ee:2b:57:53:cf:61:7c:84:4c:c8:a6:84:21:cd:b6:96:d0:cf:
         08:9d:0b:ec:15:93:2d:ed:3b:bf:6c:08:3e:2a:f2:15:62:42:
         6d:8b:2f:1d:c8:e6:98:32:22:24:82:99:d8:06:55:f8:99:a0:
         97:63:90:c6:ca:d0:6e:1b:d3:90:43:ca:c8:51:d5:3d:17:d9:
         5c:cd:6d:89:4e:a1:b6:48:3d:9b:59:b7:00:40:2a:41:7b:f1:
         b6:1a:58:f3
-----BEGIN CERTIFICATE-----
MIIEDzCCAvegAwIBAgIEEAAA5zANBgkqhkiG9w0BAQsFADBEMQswCQYDVQQGEwJE
RTEPMA0GA1UECAwGSGVzc2VuMRQwEgYDVQQKDAtwcml2YWN5aWRlYTEOMAwGA1UE
AwwFQ0EwMDEwHhcNMTgwNjAyMDUzMTI0WhcNMTkwNjAyMDUzMTI0WjA9MSUwIwYD
VQQDDBxzZWxmc2VydmljZSxDTj11c2VyLE89cmVhbG0xMRQwEgYJKoZIhvcNAQkB
FgVtZWluZTCCASIwDQYJKoZIhvcNAQEBBQADggEPADCCAQoCggEBAM881DMOEsTm
2s22VqEcJrsmHIpKc6hYirYes4uZ0h0HwpKJecBp2MjfKGGYHrP+riu9eKn3bkfc
o6AWjIUCwU6S/XJu8MgDKZu4AG7Ag5XINCA2nLPl5OZ2c6MarUCW4FNUAOx2eZrG
DX62vSnsg/PLiaTLbAC6DMV4D/9puJT0BHBDP9ie16f7Xc51jtrnxAexnd5viEu2
TZrP+bz6n80ybfY6Cw0jQnjsl0K/Dk1gVuHTAvIZy4RXkOVwoaKDNYbi2oaf+YrE
ebNSKNrLuzTK09qRSs+NdqKya5v5lv0JKtoRI03wy9aysQ4SbJoZZZiHyuTuJM5E
rJCPnRvFKp0CAwEAAaOCAQ4wggEKMAsGA1UdDwQEAwIFoDAJBgNVHRMEAjAAMBEG
CWCGSAGG+EIBAQQEAwIGQDAzBglghkgBhvhCAQ0EJhYkT3BlblNTTCBHZW5lcmF0
ZWQgU2VydmVyIENlcnRpZmljYXRlMB0GA1UdDgQWBBRNB5Ct/x0N5xrd1i76ujTL
qh8kxjB0BgNVHSMEbTBrgBT0p8DMkUavZPOR8if4yLJviocyc6FIpEYwRDELMAkG
A1UEBhMCREUxDzANBgNVBAgMBkhlc3NlbjEUMBIGA1UECgwLcHJpdmFjeWlkZWEx
DjAMBgNVBAMMBUNBMDAxggkA+8jrrIPNEgcwEwYDVR0lBAwwCgYIKwYBBQUHAwEw
DQYJKoZIhvcNAQELBQADggEBACIl5ehaNla90GF/hoAZXTlSei/W0AbIkR5iiqeA
rGFLf+DUuLmH+40/N89JJVKVnJT+gcMpRPHrooPtPsrEkNWiCa+Down/4tC0M6GE
JV10VkenjHU9e3ESKD9rTtxdv0KiZgjScQ5NO7drGoh2afxP7qmdRvfbYft193wk
PmjgfXoktLQdXhA4FLPwDZyFuyw9RIJIbdT9bywE2x65mX/+x+4rV1PPYXyETMim
hCHNtpbQzwidC+wVky3tO79sCD4q8hViQm2LLx3I5pgyIiSCmdgGVfiZoJdjkMbK
0G4b05BDyshR1T0X2VzNbYlOobZIPZtZtwBAKkF78bYaWPM=
-----END CERTIFICATE-----
