Certificate:
    Data:
        Version: 3 (0x2)
        Serial Number: 268435678 (0x100000de)
    Signature Algorithm: sha256WithRSAEncryption
        Issuer: C=DE, ST=Hessen, O=privacyidea, CN=CA001
        Validity
            Not Before: Aug 30 16:01:20 2018 GMT
            Not After : Sep 18 16:01:20 2020 GMT
        Subject: CN=Steve Test/emailAddress=steve@openssl.org
        Subject Public Key Info:
            Public Key Algorithm: rsaEncryption
                Public-Key: (2048 bit)
                Modulus:
                    00:d2:81:89:20:51:48:0f:73:f4:11:32:24:d5:1f:
                    1c:fd:5c:f5:b6:e6:c5:f0:52:81:dc:d2:af:66:4a:
                    7c:93:31:61:5c:af:d1:6d:06:70:03:60:7c:72:0c:
                    88:dd:49:cd:9e:02:6c:d2:5a:d7:53:0f:f3:da:be:
                    69:64:b5:0f:0c:00:e3:b3:50:47:a3:b3:9b:ba:13:
                    50:d6:58:5a:4b:ab:39:e0:11:ca:0a:27:67:03:78:
                    22:66:6d:92:1e:1b:5c:49:ae:e6:6b:d1:8e:3b:9d:
                    06:d3:c6:ac:4d:53:43:10:ab:e8:96:c1:87:82:97:
                    99:8f:20:d3:99:12:37:31:84:e1:8a:ff:29:03:5f:
                    22:90:3e:7f:9b:e0:20:c1:ad:dc:ae:4c:39:1a:31:
                    96:17:02:8c:b2:d9:b4:0d:20:12:9b:7d:86:54:fd:
                    33:fd:c1:2a:62:46:f8:60:96:cf:6e:01:6f:22:df:
                    13:47:e7:97:ec:05:72:23:a3:62:f8:fa:ef:ac:9c:
                    72:f0:37:cb:2f:37:cf:90:a8:27:51:86:c6:d7:78:
                    08:8f:7e:25:a2:15:70:a2:fb:1c:b6:15:5e:a0:97:
                    8b:81:4c:09:28:8a:27:3b:94:bc:71:db:5b:71:37:
                    9a:2b:16:e0:6f:b5:c9:f5:4b:4f:20:ba:65:cf:af:
                    ad:ad
                Exponent: 65537 (0x10001)
        X509v3 extensions:
            X509v3 Key Usage: 
                Digital Signature, Key Encipherment
            X509v3 Basic Constraints: 
                CA:FALSE
            Netscape Cert Type: 
                SSL Server
            Netscape Comment: 
                OpenSSL Generated Server Certificate
            X509v3 Subject Key Identifier: 
                E5:25:6D:3E:AF:0D:DD:3F:4C:F2:45:19:39:D5:14:DB:7E:9C:C0:AD
            X509v3 Authority Key Identifier: 
                keyid:F4:A7:C0:CC:91:46:AF:64:F3:91:F2:27:F8:C8:B2:6F:8A:87:32:73
                DirName:/C=DE/ST=Hessen/O=privacyidea/CN=CA001
                serial:FB:C8:EB:AC:83:CD:12:07

            X509v3 Extended Key Usage: 
                TLS Web Server Authentication
    Signature Algorithm: sha256WithRSAEncryption
         29:24:17:24:e1:c4:38:e1:bd:c6:5e:0a:30:b6:b2:1f:2a:8c:
         c6:3b:58:cb:e0:54:3a:70:18:4c:c9:d9:7f:91:62:0b:86:98:
         25:70:66:5c:69:96:4f:78:e1:b1:f0:0d:49:13:55:82:dd:21:
         fc:e6:fb:01:2a:9c:d3:31:d8:31:e3:40:08:6e:13:13:e4:11:
         8f:b4:a8:41:bb:73:e7:0c:71:a0:0c:f3:0b:5c:88:3b:74:ff:
         88:b6:ea:c8:42:e8:52:b3:81:5d:81:14:64:03:cf:70:56:f0:
         48:f4:ed:32:ef:b8:ab:70:08:a6:9c:cf:4d:48:0a:75:e8:59:
         7a:96:dd:a3:f8:8e:aa:87:82:80:65:67:33:3b:0a:12:fc:89:
         34:0a:04:bd:f7:9e:c7:09:1a:67:cb:69:bf:24:f8:c2:c4:69:
         43:ee:ea:4c:3d:12:9c:f3:22:57:75:c0:ff:66:d4:d4:2b:65:
         e4:79:9a:b2:7e:1a:f0:49:ab:e6:ae:18:9a:6d:2c:d4:59:2b:
         49:9d:59:20:3f:4c:d6:2a:cd:4e:60:56:b7:68:51:12:12:f0:
         71:95:aa:c4:91:e8:7d:98:41:49:be:96:a7:44:9c:e2:67:6f:
         25:a9:42:ab:27:22:2c:10:b3:b5:0c:64:a0:45:f8:dc:c2:c4:
         ab:19:7c:09
-----BEGIN CERTIFICATE-----
MIIECTCCAvGgAwIBAgIEEAAA3jANBgkqhkiG9w0BAQsFADBEMQswCQYDVQQGEwJE
RTEPMA0GA1UECAwGSGVzc2VuMRQwEgYDVQQKDAtwcml2YWN5aWRlYTEOMAwGA1UE
AwwFQ0EwMDEwHhcNMTgwODMwMTYwMTIwWhcNMjAwOTE4MTYwMTIwWjA3MRMwEQYD
VQQDDApTdGV2ZSBUZXN0MSAwHgYJKoZIhvcNAQkBFhFzdGV2ZUBvcGVuc3NsLm9y
ZzCCASIwDQYJKoZIhvcNAQEBBQADggEPADCCAQoCggEBANKBiSBRSA9z9BEyJNUf
HP1c9bbmxfBSgdzSr2ZKfJMxYVyv0W0GcANgfHIMiN1JzZ4CbNJa11MP89q+aWS1
DwwA47NQR6Ozm7oTUNZYWkurOeARygonZwN4ImZtkh4bXEmu5mvRjjudBtPGrE1T
QxCr6JbBh4KXmY8g05kSNzGE4Yr/KQNfIpA+f5vgIMGt3K5MORoxlhcCjLLZtA0g
Ept9hlT9M/3BKmJG+GCWz24BbyLfE0fnl+wFciOjYvj676yccvA3yy83z5CoJ1GG
xtd4CI9+JaIVcKL7HLYVXqCXi4FMCSiKJzuUvHHbW3E3misW4G+1yfVLTyC6Zc+v
ra0CAwEAAaOCAQ4wggEKMAsGA1UdDwQEAwIFoDAJBgNVHRMEAjAAMBEGCWCGSAGG
+EIBAQQEAwIGQDAzBglghkgBhvhCAQ0EJhYkT3BlblNTTCBHZW5lcmF0ZWQgU2Vy
dmVyIENlcnRpZmljYXRlMB0GA1UdDgQWBBTlJW0+rw3dP0zyRRk51RTbfpzArTB0
BgNVHSMEbTBrgBT0p8DMkUavZPOR8if4yLJviocyc6FIpEYwRDELMAkGA1UEBhMC
REUxDzANBgNVBAgMBkhlc3NlbjEUMBIGA1UECgwLcHJpdmFjeWlkZWExDjAMBgNV
BAMMBUNBMDAxggkA+8jrrIPNEgcwEwYDVR0lBAwwCgYIKwYBBQUHAwEwDQYJKoZI
hvcNAQELBQADggEBACkkFyThxDjhvcZeCjC2sh8qjMY7WMvgVDpwGEzJ2X+RYguG
mCVwZlxplk944bHwDUkTVYLdIfzm+wEqnNMx2DHjQAhuExPkEY+0qEG7c+cMcaAM
8wtciDt0/4i26shC6FKzgV2BFGQDz3BW8Ej07TLvuKtwCKacz01ICnXoWXqW3aP4
jqqHgoBlZzM7ChL8iTQKBL33nscJGmfLab8k+MLEaUPu6kw9EpzzIld1wP9m1NQr
ZeR5mrJ+GvBJq+auGJptLNRZK0mdWSA/TNYqzU5gVrdoURIS8HGVqsSR6H2YQUm+
lqdEnOJnbyWpQqsnIiwQs7UMZKBF+NzCxKsZfAk=
-----END CERTIFICATE-----
