Certificate:
    Data:
        Version: 3 (0x2)
        Serial Number: 268435709 (0x100000fd)
    Signature Algorithm: sha1WithRSAEncryption
        Issuer: C=DE, ST=Hessen, O=privacyidea, CN=CA001
        Validity
            Not Before: Feb 23 15:44:22 2017 GMT
            Not After : Feb 23 15:44:22 2018 GMT
        Subject: C=DE, ST=Hessen, O=privacyidea, CN=requester.localdomain
        Subject Public Key Info:
            Public Key Algorithm: rsaEncryption
                Public-Key: (2048 bit)
                Modulus:
                    00:cd:be:14:4f:fa:ce:01:3f:42:22:1b:1d:9c:af:
                    dd:92:d2:7f:db:6c:b7:3e:39:43:43:6b:13:03:f1:
                    05:f4:07:74:bc:76:69:28:0b:af:19:8e:d7:fc:e3:
                    cd:c6:58:f2:ca:7f:08:6d:53:fc:07:02:44:24:c6:
                    b4:34:4c:8c:04:fe:33:0e:40:e2:20:ba:02:73:5a:
                    f7:f5:4f:63:6e:cc:c6:b6:df:54:1d:37:39:7d:51:
                    36:26:5f:bd:dc:3f:a8:8b:6b:a2:ae:b6:9d:d6:21:
                    e7:df:41:b8:7a:28:2a:68:48:ca:a8:2d:ed:e1:e9:
                    46:5e:5a:72:6d:b4:84:38:87:91:fd:94:11:0b:28:
                    84:c6:c2:2f:2a:fb:01:f9:36:7a:09:75:d1:33:88:
                    3c:73:41:5b:c8:bf:94:89:70:a1:f0:c0:b9:2e:50:
                    53:1e:b1:17:64:69:f4:2d:81:e0:a9:0d:0e:32:e9:
                    ba:55:8a:85:f1:1b:6f:49:79:b4:7f:88:c3:0d:3e:
                    54:88:9b:3d:1f:38:8c:04:f3:ee:6a:63:2b:f5:c6:
                    db:b4:83:aa:c4:78:41:3a:7d:4b:e1:c8:3e:71:ca:
                    1b:61:59:ea:c6:c4:ca:32:5e:c9:e9:bf:12:29:e6:
                    c6:c3:63:fe:a0:55:da:7a:f1:60:98:4d:26:ed:fa:
                    70:2d
                Exponent: 65537 (0x10001)
        X509v3 extensions:
            X509v3 Key Usage: 
                Digital Signature, Key Encipherment
            X509v3 Basic Constraints: 
                CA:FALSE
            Netscape Cert Type: 
                SSL Server
            Netscape Comment: 
                OpenSSL Generated Server Certificate
            X509v3 Subject Key Identifier: 
                53:3F:ED:5D:09:07:B3:65:7B:AB:45:C9:24:5B:09:77:80:0A:96:ED
            X509v3 Authority Key Identifier: 
                keyid:F4:A7:C0:CC:91:46:AF:64:F3:91:F2:27:F8:C8:B2:6F:8A:87:32:73
                DirName:/C=DE/ST=Hessen/O=privacyidea/CN=CA001
                serial:FB:C8:EB:AC:83:CD:12:07

            X509v3 Extended Key Usage: 
                TLS Web Server Authentication
    Signature Algorithm: sha1WithRSAEncryption
         3e:4d:ba:ae:f9:34:93:64:f3:c0:03:63:12:23:1c:85:7c:a6:
         e2:75:29:07:ac:65:a9:8f:b1:a7:29:af:f7:d4:03:72:6f:05:
         2c:f3:fc:bb:64:d3:76:d8:66:72:8d:14:2a:a4:60:8c:3d:07:
         2b:d9:27:76:c4:68:f9:bf:b1:bd:55:96:4a:de:f6:7a:cb:50:
         64:0e:95:9a:3d:e1:14:30:4d:3e:a7:f2:a9:91:50:fb:51:77:
         19:33:60:e6:3d:48:43:e5:c0:7e:23:3e:43:c6:b5:de:5a:da:
         ff:de:17:59:7e:e4:78:12:f4:38:1d:74:6d:e1:db:33:50:9c:
         e4:8f:91:c2:e0:7b:35:8f:01:5c:fd:6d:ea:0f:ad:3c:3d:2f:
         c2:0d:ee:a3:78:1d:a5:10:81:b6:7d:2d:e7:35:25:ca:f3:ba:
         bc:7e:0c:54:51:5d:47:fd:3f:f1:19:a3:73:84:03:53:8b:1c:
         73:e0:5f:06:b2:c2:fa:9c:c3:a8:7d:8e:6c:21:aa:d8:7e:94:
         8c:5d:f8:e2:37:90:75:90:c3:ed:80:ae:ef:91:fc:45:66:ac:
         0b:ff:4d:f7:70:28:4e:55:9f:d0:90:96:79:db:74:65:09:ee:
         82:9f:32:0d:90:9b:88:65:9e:9b:15:78:fe:23:dc:5f:c6:dd:
         32:15:97:87
-----BEGIN CERTIFICATE-----
MIIEJjCCAw6gAwIBAgIEEAAA/TANBgkqhkiG9w0BAQUFADBEMQswCQYDVQQGEwJE
RTEPMA0GA1UECAwGSGVzc2VuMRQwEgYDVQQKDAtwcml2YWN5aWRlYTEOMAwGA1UE
AwwFQ0EwMDEwHhcNMTcwMjIzMTU0NDIyWhcNMTgwMjIzMTU0NDIyWjBUMQswCQYD
VQQGEwJERTEPMA0GA1UECAwGSGVzc2VuMRQwEgYDVQQKDAtwcml2YWN5aWRlYTEe
MBwGA1UEAwwVcmVxdWVzdGVyLmxvY2FsZG9tYWluMIIBIjANBgkqhkiG9w0BAQEF
AAOCAQ8AMIIBCgKCAQEAzb4UT/rOAT9CIhsdnK/dktJ/22y3PjlDQ2sTA/EF9Ad0
vHZpKAuvGY7X/OPNxljyyn8IbVP8BwJEJMa0NEyMBP4zDkDiILoCc1r39U9jbszG
tt9UHTc5fVE2Jl+93D+oi2uirrad1iHn30G4eigqaEjKqC3t4elGXlpybbSEOIeR
/ZQRCyiExsIvKvsB+TZ6CXXRM4g8c0FbyL+UiXCh8MC5LlBTHrEXZGn0LYHgqQ0O
Mum6VYqF8RtvSXm0f4jDDT5UiJs9HziMBPPuamMr9cbbtIOqxHhBOn1L4cg+ccob
YVnqxsTKMl7J6b8SKebGw2P+oFXaevFgmE0m7fpwLQIDAQABo4IBDjCCAQowCwYD
VR0PBAQDAgWgMAkGA1UdEwQCMAAwEQYJYIZIAYb4QgEBBAQDAgZAMDMGCWCGSAGG
+EIBDQQmFiRPcGVuU1NMIEdlbmVyYXRlZCBTZXJ2ZXIgQ2VydGlmaWNhdGUwHQYD
VR0OBBYEFFM/7V0JB7Nle6tFySRbCXeACpbtMHQGA1UdIwRtMGuAFPSnwMyRRq9k
85HyJ/jIsm+KhzJzoUikRjBEMQswCQYDVQQGEwJERTEPMA0GA1UECAwGSGVzc2Vu
MRQwEgYDVQQKDAtwcml2YWN5aWRlYTEOMAwGA1UEAwwFQ0EwMDGCCQD7yOusg80S
BzATBgNVHSUEDDAKBggrBgEFBQcDATANBgkqhkiG9w0BAQUFAAOCAQEAPk26rvk0
k2TzwANjEiMchXym4nUpB6xlqY+xpymv99QDcm8FLPP8u2TTdthmco0UKqRgjD0H
K9kndsRo+b+xvVWWSt72estQZA6Vmj3hFDBNPqfyqZFQ+1F3GTNg5j1IQ+XAfiM+
Q8a13lra/94XWX7keBL0OB10beHbM1Cc5I+RwuB7NY8BXP1t6g+tPD0vwg3uo3gd
pRCBtn0t5zUlyvO6vH4MVFFdR/0/8Rmjc4QDU4scc+BfBrLC+pzDqH2ObCGq2H6U
jF344jeQdZDD7YCu75H8RWasC/9N93AoTlWf0JCWedt0ZQnugp8yDZCbiGWemxV4
/iPcX8bdMhWXhw==
-----END CERTIFICATE-----
