Certificate:
    Data:
        Version: 3 (0x2)
        Serial Number: 268435710 (0x100000fe)
    Signature Algorithm: sha1WithRSAEncryption
        Issuer: C=DE, ST=Hessen, O=privacyidea, CN=CA001
        Validity
            Not Before: Feb 23 15:44:22 2017 GMT
            Not After : Feb 23 15:44:22 2018 GMT
        Subject: C=DE, ST=Hessen, O=privacyidea, CN=usercert
        Subject Public Key Info:
            Public Key Algorithm: rsaEncryption
                Public-Key: (2048 bit)
                Modulus:
                    00:dc:2f:d1:5f:29:97:d4:7c:c3:53:c8:30:bd:4b:
                    67:70:2c:24:6b:b8:5e:eb:21:7a:48:12:56:7c:81:
                    5c:48:75:b6:68:eb:f6:f2:98:4e:50:51:d1:7f:6c:
                    73:f3:0a:a7:ae:be:48:5e:e5:d6:e1:d9:2a:7c:32:
                    6e:4e:fd:08:f6:5a:54:49:23:73:c3:b9:07:18:d1:
                    ef:b3:ac:f8:8a:dc:94:96:a4:90:3a:8e:74:df:e6:
                    0d:37:1b:bd:5b:b7:25:1a:56:39:da:6f:91:aa:5e:
                    1c:74:f3:f9:7c:14:01:83:12:65:76:c7:bb:fe:36:
                    5b:95:e9:72:65:83:ed:3e:98:30:71:fa:87:dd:a3:
                    36:5a:30:03:2e:26:e0:61:d1:bf:02:3f:b6:06:1f:
                    4a:89:28:1c:5c:a2:ff:4e:be:94:e6:8c:e0:da:82:
                    f1:9d:29:32:48:30:73:b4:04:f6:42:1e:be:f7:e2:
                    32:32:27:3c:9d:89:2f:70:3e:85:9a:6f:5c:c5:09:
                    c0:8c:32:2f:72:22:c9:d2:95:1f:b6:ac:72:60:72:
                    b7:82:4d:6b:ce:5b:e3:00:d0:d2:2f:58:c6:e0:10:
                    e5:51:ca:4d:3b:2e:e6:7e:ab:84:d6:56:f1:93:35:
                    a0:93:64:26:81:75:2f:91:b5:16:06:38:0b:db:cc:
                    2d:07
                Exponent: 65537 (0x10001)
        X509v3 extensions:
            X509v3 Key Usage: 
                Digital Signature, Key Encipherment
            X509v3 Basic Constraints: 
                CA:FALSE
            Netscape Cert Type: 
                SSL Server
            Netscape Comment: 
                OpenSSL Generated Server Certificate
            X509v3 Subject Key Identifier: 
                FC:14:D1:F0:4B:8D:00:90:F2:F5:B8:71:9E:4E:97:C3:92:54:AD:0B
            X509v3 Authority Key Identifier: 
                keyid:F4:A7:C0:CC:91:46:AF:64:F3:91:F2:27:F8:C8:B2:6F:8A:87:32:73
                DirName:/C=DE/ST=Hessen/O=privacyidea/CN=CA001
                serial:FB:C8:EB:AC:83:CD:12:07

            X509v3 Extended Key Usage: 
                TLS Web Server Authentication
    Signature Algorithm: sha1WithRSAEncryption
         01:b8:c5:02:85:ee:ef:20:85:17:21:a7:ea:e5:db:b5:d9:58:
         a3:8d:4e:4d:f9:cb:cf:18:00:22:fd:1f:45:9d:1b:e4:c0:67:
         d9:29:e0:39:38:3b:9f:6f:25:f6:2b:5f:d7:34:84:f1:cd:c2:
         6c:b0:f8:c3:ad:e9:80:3c:7d:b4:63:b6:80:c7:a7:ba:37:92:
         4a:4c:f2:b1:4e:d2:63:0e:9c:70:e0:77:ce:4d:6f:1a:94:29:
         a3:77:d3:d7:8d:bf:58:15:a2:3e:bd:ce:44:00:35:98:c9:ed:
         75:8d:0d:3f:a0:8e:b1:1e:f9:d2:07:b3:7e:6d:e0:46:97:ce:
         14:f8:9c:ca:a7:01:39:f5:e4:7d:a5:23:15:e8:45:47:c9:64:
         d7:35:50:f4:47:48:6d:d5:e3:11:91:bb:1e:2c:9f:24:e9:aa:
         1d:e3:b0:fd:74:7f:62:f0:a5:4a:ba:23:e8:69:71:fd:f3:fd:
         62:fc:7c:c7:67:f9:2a:c8:a4:1d:cf:06:c4:e2:3c:96:d7:e0:
         7f:64:ec:2d:26:0e:60:62:0d:4f:f2:bf:66:24:d7:c6:67:01:
         98:5a:68:6e:a6:fa:79:0b:2c:83:2e:b5:6c:07:b1:7a:5f:07:
         e0:6d:71:c6:c4:d6:ad:f4:ef:72:ca:fa:0c:fa:48:fd:a1:c7:
         b7:63:ae:77
-----BEGIN CERTIFICATE-----
MIIEGTCCAwGgAwIBAgIEEAAA/jANBgkqhkiG9w0BAQUFADBEMQswCQYDVQQGEwJE
RTEPMA0GA1UECAwGSGVzc2VuMRQwEgYDVQQKDAtwcml2YWN5aWRlYTEOMAwGA1UE
AwwFQ0EwMDEwHhcNMTcwMjIzMTU0NDIyWhcNMTgwMjIzMTU0NDIyWjBHMQswCQYD
VQQGEwJERTEPMA0GA1UECAwGSGVzc2VuMRQwEgYDVQQKDAtwcml2YWN5aWRlYTER
MA8GA1UEAwwIdXNlcmNlcnQwggEiMA0GCSqGSIb3DQEBAQUAA4IBDwAwggEKAoIB
AQDcL9FfKZfUfMNTyDC9S2dwLCRruF7rIXpIElZ8gVxIdbZo6/bymE5QUdF/bHPz
Cqeuvkhe5dbh2Sp8Mm5O/Qj2WlRJI3PDuQcY0e+zrPiK3JSWpJA6jnTf5g03G71b
tyUaVjnab5GqXhx08/l8FAGDEmV2x7v+NluV6XJlg+0+mDBx+ofdozZaMAMuJuBh
0b8CP7YGH0qJKBxcov9OvpTmjODagvGdKTJIMHO0BPZCHr734jIyJzydiS9wPoWa
b1zFCcCMMi9yIsnSlR+2rHJgcreCTWvOW+MA0NIvWMbgEOVRyk07LuZ+q4TWVvGT
NaCTZCaBdS+RtRYGOAvbzC0HAgMBAAGjggEOMIIBCjALBgNVHQ8EBAMCBaAwCQYD
VR0TBAIwADARBglghkgBhvhCAQEEBAMCBkAwMwYJYIZIAYb4QgENBCYWJE9wZW5T
U0wgR2VuZXJhdGVkIFNlcnZlciBDZXJ0aWZpY2F0ZTAdBgNVHQ4EFgQU/BTR8EuN
AJDy9bhxnk6Xw5JUrQswdAYDVR0jBG0wa4AU9KfAzJFGr2TzkfIn+Miyb4qHMnOh
SKRGMEQxCzAJBgNVBAYTAkRFMQ8wDQYDVQQIDAZIZXNzZW4xFDASBgNVBAoMC3By
aXZhY3lpZGVhMQ4wDAYDVQQDDAVDQTAwMYIJAPvI66yDzRIHMBMGA1UdJQQMMAoG
CCsGAQUFBwMBMA0GCSqGSIb3DQEBBQUAA4IBAQABuMUChe7vIIUXIafq5du12Vij
jU5N+cvPGAAi/R9FnRvkwGfZKeA5ODufbyX2K1/XNITxzcJssPjDremAPH20Y7aA
x6e6N5JKTPKxTtJjDpxw4HfOTW8alCmjd9PXjb9YFaI+vc5EADWYye11jQ0/oI6x
HvnSB7N+beBGl84U+JzKpwE59eR9pSMV6EVHyWTXNVD0R0ht1eMRkbseLJ8k6aod
47D9dH9i8KVKuiPoaXH98/1i/HzHZ/kqyKQdzwbE4jyW1+B/ZOwtJg5gYg1P8r9m
JNfGZwGYWmhupvp5CyyDLrVsB7F6XwfgbXHGxNat9O9yyvoM+kj9oce3Y653
-----END CERTIFICATE-----
