Certificate:
    Data:
        Version: 3 (0x2)
        Serial Number: 268435719 (0x10000107)
    Signature Algorithm: sha1WithRSAEncryption
        Issuer: C=DE, ST=Hessen, O=privacyidea, CN=CA001
        Validity
            Not Before: Apr 26 14:59:35 2016 GMT
            Not After : Apr 26 14:59:35 2017 GMT
        Subject: OU=local, CN=corny/emailAddress=corny@cornelinux.de
        Subject Public Key Info:
            Public Key Algorithm: rsaEncryption
                Public-Key: (2048 bit)
                Modulus:
                    00:ad:28:bb:48:96:82:fa:73:03:90:e8:fe:cc:38:
                    c1:83:d5:c8:11:0a:6e:df:a9:34:17:81:2f:e5:a3:
                    25:f9:b2:83:2a:74:6a:40:69:03:52:8a:b7:2a:9d:
                    73:f7:66:cb:35:84:d7:7e:3f:45:14:03:0c:a2:47:
                    a9:41:81:07:40:80:2e:0e:64:2d:ac:73:97:5a:38:
                    e7:7a:ae:c7:49:e9:46:e8:19:c2:46:4d:55:52:06:
                    d8:18:23:c1:84:11:9e:6a:36:8e:91:67:f2:e7:b7:
                    d9:d9:1e:36:dc:4e:75:1a:86:dc:ce:cb:bb:c9:a8:
                    be:05:90:8b:53:b9:b0:1f:2b:b2:ba:6d:7d:0a:a7:
                    d4:c1:b5:b6:0c:43:9f:8b:b2:79:ea:50:1d:64:b7:
                    f4:0d:6e:b1:03:3c:ca:1f:60:f8:63:9a:43:34:51:
                    ed:d0:cc:6f:ae:5e:a3:e4:62:54:8a:08:92:55:a6:
                    7e:6a:1a:3b:3e:5e:45:da:b3:65:ce:ca:de:d9:d5:
                    6b:a1:fa:fd:ff:b5:61:d5:a4:02:77:7d:92:f2:96:
                    bc:29:d6:74:b4:7f:78:77:53:4d:16:8d:36:a5:15:
                    5b:1f:a7:07:20:b0:43:60:e8:4f:1e:ba:95:c0:2d:
                    db:9b:83:10:cd:d6:63:b7:c8:40:17:c8:26:ba:c2:
                    f3:c1
                Exponent: 65537 (0x10001)
        X509v3 extensions:
            X509v3 Key Usage: 
                Digital Signature, Key Encipherment
            X509v3 Basic Constraints: 
                CA:FALSE
            Netscape Cert Type: 
                SSL Server
            Netscape Comment: 
                OpenSSL Generated Server Certificate
            X509v3 Subject Key Identifier: 
                80:32:02:BA:E0:E5:88:A8:18:F4:02:3E:F6:CF:88:F6:D0:B5:EC:DB
            X509v3 Authority Key Identifier: 
                keyid:F4:A7:C0:CC:91:46:AF:64:F3:91:F2:27:F8:C8:B2:6F:8A:87:32:73
                DirName:/C=DE/ST=Hessen/O=privacyidea/CN=CA001
                serial:FB:C8:EB:AC:83:CD:12:07

            X509v3 Extended Key Usage: 
                TLS Web Server Authentication
    Signature Algorithm: sha1WithRSAEncryption
         b4:9b:b1:8f:2b:14:a8:42:45:2c:df:65:9d:cc:aa:64:55:d2:
         d3:05:17:2e:9a:1b:36:8d:f9:4a:13:fc:61:f1:93:ae:8e:53:
         de:4d:53:58:86:89:1e:0c:4f:29:bf:32:33:fc:ab:5b:35:88:
         d2:0d:98:a3:51:fb:82:7e:31:5c:be:b5:bc:8b:31:53:ba:b0:
         64:c5:31:3a:3d:e8:66:dd:95:e2:dd:8e:b5:bf:9b:8c:b7:81:
         2b:04:4f:13:dc:13:56:a0:d2:83:7d:cf:1c:4f:19:90:ba:85:
         ab:c1:63:47:bb:8c:53:56:48:77:38:bf:1e:de:44:de:cb:82:
         51:1d:da:6d:58:dc:22:73:fe:ed:13:6f:12:e2:f4:b5:68:a9:
         41:d9:54:b1:08:ba:fb:7d:29:c1:4a:60:e4:3f:3d:b7:6f:c2:
         cf:ed:80:b1:31:5c:65:e7:74:ac:f2:7b:60:d8:32:28:2b:b4:
         76:05:78:ae:83:59:d0:12:e8:01:06:a9:03:09:98:f4:b7:12:
         dc:74:68:51:b4:af:e3:26:0b:19:a9:7a:b0:39:b0:01:cf:59:
         45:eb:bd:6f:fe:b6:42:10:dd:4e:10:0a:f5:5c:d6:17:01:78:
         61:25:69:0e:e0:70:22:a2:2f:1f:b5:84:ec:eb:84:8a:72:92:
         75:12:9b:8f
-----BEGIN CERTIFICATE-----
MIIEFjCCAv6gAwIBAgIEEAABBzANBgkqhkiG9w0BAQUFADBEMQswCQYDVQQGEwJE
RTEPMA0GA1UECAwGSGVzc2VuMRQwEgYDVQQKDAtwcml2YWN5aWRlYTEOMAwGA1UE
AwwFQ0EwMDEwHhcNMTYwNDI2MTQ1OTM1WhcNMTcwNDI2MTQ1OTM1WjBEMQ4wDAYD
VQQLEwVsb2NhbDEOMAwGA1UEAxMFY29ybnkxIjAgBgkqhkiG9w0BCQEWE2Nvcm55
QGNvcm5lbGludXguZGUwggEiMA0GCSqGSIb3DQEBAQUAA4IBDwAwggEKAoIBAQCt
KLtIloL6cwOQ6P7MOMGD1cgRCm7fqTQXgS/loyX5soMqdGpAaQNSircqnXP3Zss1
hNd+P0UUAwyiR6lBgQdAgC4OZC2sc5daOOd6rsdJ6UboGcJGTVVSBtgYI8GEEZ5q
No6RZ/Lnt9nZHjbcTnUahtzOy7vJqL4FkItTubAfK7K6bX0Kp9TBtbYMQ5+Lsnnq
UB1kt/QNbrEDPMofYPhjmkM0Ue3QzG+uXqPkYlSKCJJVpn5qGjs+XkXas2XOyt7Z
1Wuh+v3/tWHVpAJ3fZLylrwp1nS0f3h3U00WjTalFVsfpwcgsENg6E8eupXALdub
gxDN1mO3yEAXyCa6wvPBAgMBAAGjggEOMIIBCjALBgNVHQ8EBAMCBaAwCQYDVR0T
BAIwADARBglghkgBhvhCAQEEBAMCBkAwMwYJYIZIAYb4QgENBCYWJE9wZW5TU0wg
R2VuZXJhdGVkIFNlcnZlciBDZXJ0aWZpY2F0ZTAdBgNVHQ4EFgQUgDICuuDliKgY
9AI+9s+I9tC17NswdAYDVR0jBG0wa4AU9KfAzJFGr2TzkfIn+Miyb4qHMnOhSKRG
MEQxCzAJBgNVBAYTAkRFMQ8wDQYDVQQIDAZIZXNzZW4xFDASBgNVBAoMC3ByaXZh
Y3lpZGVhMQ4wDAYDVQQDDAVDQTAwMYIJAPvI66yDzRIHMBMGA1UdJQQMMAoGCCsG
AQUFBwMBMA0GCSqGSIb3DQEBBQUAA4IBAQC0m7GPKxSoQkUs32WdzKpkVdLTBRcu
mhs2jflKE/xh8ZOujlPeTVNYhokeDE8pvzIz/KtbNYjSDZijUfuCfjFcvrW8izFT
urBkxTE6Pehm3ZXi3Y61v5uMt4ErBE8T3BNWoNKDfc8cTxmQuoWrwWNHu4xTVkh3
OL8e3kTey4JRHdptWNwic/7tE28S4vS1aKlB2VSxCLr7fSnBSmDkPz23b8LP7YCx
MVxl53Ss8ntg2DIoK7R2BXiug1nQEugBBqkDCZj0txLcdGhRtK/jJgsZqXqwObAB
z1lF671v/rZCEN1OEAr1XNYXAXhhJWkO4HAioi8ftYTs64SKcpJ1EpuP
-----END CERTIFICATE-----
