ccollections
OrderedDict
p1
((lp2
(lp3
S'1.cz'
p4
a(lp5
S'1.cz'
p6
a(lp7
S'/s\\/([^\\/]+)/'
p8
aS'q'
aaS's/{k}'
p9
aS'iso-8859-2'
p10
aaa(lp11
S'www.123people.com'
p12
a(lp13
S'123people'
p14
a(lp15
S'/s\\/([^\\/]+)/'
p16
aS'search_term'
p17
aaS's/{k}'
p18
aaa(lp19
S'123people.{}'
p20
a(lp21
g14
aaa(lp22
S'so.360.cn'
p23
a(lp24
S'360search'
p25
aS'q'
aS's?q={k}'
p26
a(lp27
S'UTF-8'
p28
aS'gb2312'
p29
aaaa(lp30
S'www.so.com'
p31
a(lp32
g25
aS'q'
aS's?q={k}'
p33
a(lp34
S'UTF-8'
p35
ag29
aaaa(lp36
S'm.so.com'
p37
a(lp38
g25
aS'q'
aS's?q={k}'
p39
a(lp40
S'UTF-8'
p41
ag29
aaaa(lp42
S'www.abacho.de'
p43
a(lp44
S'Abacho'
p45
aS'q'
aS'suche?q={k}'
p46
aaa(lp47
S'www.abacho.com'
p48
a(lp49
g45
aaa(lp50
S'www.abacho.co.uk'
p51
a(lp52
g45
aaa(lp53
S'www.se.abacho.com'
p54
a(lp55
g45
aaa(lp56
S'www.tr.abacho.com'
p57
a(lp58
g45
aaa(lp59
S'www.abacho.at'
p60
a(lp61
g45
aaa(lp62
S'www.abacho.fr'
p63
a(lp64
g45
aaa(lp65
S'www.abacho.es'
p66
a(lp67
g45
aaa(lp68
S'www.abacho.ch'
p69
a(lp70
g45
aaa(lp71
S'www.abacho.it'
p72
a(lp73
g45
aaa(lp74
S'abcsok.no'
p75
a(lp76
S'ABCs\xc3\xb8k'
p77
aS'q'
aS'?q={k}'
p78
aaa(lp79
S'verden.abcsok.no'
p80
a(lp81
S'ABCs\xc3\xb8k'
p82
aaa(lp83
S'www.acoon.de'
p84
a(lp85
S'Acoon'
p86
aS'begriff'
p87
aS'cgi-bin/search.exe?begriff={k}'
p88
aaa(lp89
S'chercherfr.aguea.com'
p90
a(lp91
S'Aguea'
p92
aS'q'
aS's.py?q={k}'
p93
aaa(lp94
S'alexa.com'
p95
a(lp96
S'Alexa'
p97
aS'q'
aS'search?q={k}'
p98
aaa(lp99
S'search.toolbars.alexa.com'
p100
a(lp101
g97
aaa(lp102
S'rechercher.aliceadsl.fr'
p103
a(lp104
S'Alice Adsl'
p105
aS'qs'
p106
aS'google.pl?qs={k}'
p107
aaa(lp108
S'www.allesklar.de'
p109
a(lp110
S'Allesklar'
p111
aS'words'
p112
aS'?words={k}'
p113
aaa(lp114
S'www.allesklar.at'
p115
a(lp116
g111
aaa(lp117
S'www.allesklar.ch'
p118
a(lp119
g111
aaa(lp120
S'www.alltheweb.com'
p121
a(lp122
S'AllTheWeb'
p123
aS'q'
aS'search?q={k}'
p124
aaa(lp125
S'all.by'
p126
a(lp127
S'All.by'
p128
aS'query'
p129
aS'cgi-bin/search.cgi?mode=by&query={k}'
p130
aaa(lp131
S'www.altavista.com'
p132
a(lp133
S'AltaVista'
p134
aS'q'
aS'web/results?q={k}'
p135
aaa(lp136
S'search.altavista.com'
p137
a(lp138
g134
aaa(lp139
S'listings.altavista.com'
p140
a(lp141
g134
aaa(lp142
S'altavista.de'
p143
a(lp144
g134
aaa(lp145
S'altavista.fr'
p146
a(lp147
g134
aaa(lp148
S'{}.altavista.com'
p149
a(lp150
g134
aaa(lp151
S'be-nl.altavista.com'
p152
a(lp153
g134
aaa(lp154
S'be-fr.altavista.com'
p155
a(lp156
g134
aaa(lp157
S'apollo.lv/portal/search/'
p158
a(lp159
S'Apollo lv'
p160
aS'q'
aS'?cof=FORID%3A11&q={k}&search_where=www'
p161
aaa(lp162
S'apollo7.de'
p163
a(lp164
S'Apollo7'
p165
ag129
aS'a7db/index.php?query={k}&de_sharelook=true&de_bing=true&de_witch=true&de_google=true&de_yahoo=true&de_lycos=true'
p166
aaa(lp167
S'search.aol.com'
p168
a(lp169
S'AOL'
p170
a(lp171
g129
aS'q'
aaS'aol/search?q={k}'
p172
aaa(lp173
S'search.aol.it'
p174
a(lp175
g170
aaa(lp176
S'aolsearch.aol.com'
p177
a(lp178
g170
aaa(lp179
S'www.aolrecherche.aol.fr'
p180
a(lp181
g170
aaa(lp182
S'www.aolrecherches.aol.fr'
p183
a(lp184
g170
aaa(lp185
S'www.aolimages.aol.fr'
p186
a(lp187
g170
aaa(lp188
S'aim.search.aol.com'
p189
a(lp190
g170
aaa(lp191
S'www.recherche.aol.fr'
p192
a(lp193
g170
aaa(lp194
S'recherche.aol.fr'
p195
a(lp196
g170
aaa(lp197
S'find.web.aol.com'
p198
a(lp199
g170
aaa(lp200
S'recherche.aol.ca'
p201
a(lp202
g170
aaa(lp203
S'aolsearch.aol.co.uk'
p204
a(lp205
g170
aaa(lp206
S'search.aol.co.uk'
p207
a(lp208
g170
aaa(lp209
S'aolrecherche.aol.fr'
p210
a(lp211
g170
aaa(lp212
S'sucheaol.aol.de'
p213
a(lp214
g170
aaa(lp215
S'suche.aol.de'
p216
a(lp217
g170
aaa(lp218
S'o2suche.aol.de'
p219
a(lp220
g170
aaa(lp221
S'suche.aolsvc.de'
p222
a(lp223
g170
aaa(lp224
S'aolbusqueda.aol.com.mx'
p225
a(lp226
g170
aaa(lp227
S'alicesuche.aol.de'
p228
a(lp229
g170
aaa(lp230
S'alicesuchet.aol.de'
p231
a(lp232
g170
aaa(lp233
S'suchet2.aol.de'
p234
a(lp235
g170
aaa(lp236
S'search.hp.my.aol.com.au'
p237
a(lp238
g170
aaa(lp239
S'search.hp.my.aol.de'
p240
a(lp241
g170
aaa(lp242
S'search.hp.my.aol.it'
p243
a(lp244
g170
aaa(lp245
S'search-intl.netscape.com'
p246
a(lp247
g170
aaa(lp248
S'de.aolsearch.com'
p249
a(lp250
g170
aS'q'
aS'search?q={k}'
p251
aaa(lp252
S'sm.aport.ru'
p253
a(lp254
S'Aport'
p255
aS'r'
aS'search?r={k}'
p256
aaa(lp257
S'arama.com'
p258
a(lp259
S'Arama'
p260
aS'q'
aS'search.php3?q={k}'
p261
aaa(lp262
S'www.arcor.de'
p263
a(lp264
S'Arcor'
p265
aS'Keywords'
p266
aS'content/searchresult.jsp?Keywords={k}'
p267
aaa(lp268
S'arianna.libero.it'
p269
a(lp270
S'Arianna'
p271
ag129
aS'search/abin/integrata.cgi?query={k}'
p272
aaa(lp273
S'www.arianna.com'
p274
a(lp275
g271
aaa(lp276
S'ask.com'
p277
a(lp278
S'Ask'
p279
a(lp280
S'ask'
p281
aS'q'
aS'searchfor'
p282
aaS'web?q={k}'
p283
aaa(lp284
S'web.ask.com'
p285
a(lp286
g279
aaa(lp287
S'int.ask.com'
p288
a(lp289
g279
aaa(lp290
S'mws.ask.com'
p291
a(lp292
g279
aaa(lp293
S'images.ask.com'
p294
a(lp295
g279
aaa(lp296
S'images.{}.ask.com'
p297
a(lp298
g279
aaa(lp299
S'ask.reference.com'
p300
a(lp301
g279
aaa(lp302
S'www.askkids.com'
p303
a(lp304
g279
aaa(lp305
S'iwon.ask.com'
p306
a(lp307
g279
aaa(lp308
S'www.ask.co.uk'
p309
a(lp310
g279
aaa(lp311
S'{}.ask.com'
p312
a(lp313
g279
aaa(lp314
S'www.qbyrd.com'
p315
a(lp316
g279
aaa(lp317
S'{}.qbyrd.com'
p318
a(lp319
g279
aaa(lp320
S'www.search-results.com'
p321
a(lp322
g279
aaa(lp323
S'www1.search-results.com'
p324
a(lp325
g279
aaa(lp326
S'int.search-results.com'
p327
a(lp328
g279
aaa(lp329
S'{}.search-results.com'
p330
a(lp331
g279
aaa(lp332
S'search.ask.com'
p333
a(lp334
g279
aaa(lp335
S'{}.search.ask.com'
p336
a(lp337
g279
aaa(lp338
S'avira-int.ask.com'
p339
a(lp340
g279
aaa(lp341
S'searchqu.com'
p342
a(lp343
g279
aaa(lp344
S'search.tb.ask.com'
p345
a(lp346
g279
aaa(lp347
S'nortonsafe.search.ask.com'
p348
a(lp349
g279
aaa(lp350
S'safesearch.avira.com'
p351
a(lp352
g279
aaa(lp353
S'avira.search.ask.com'
p354
a(lp355
g279
aaa(lp356
S'int.search.tb.ask.com'
p357
a(lp358
g279
aaa(lp359
S'searchatlas.centrum.cz'
p360
a(lp361
S'Atlas'
p362
aS'q'
aS'?q={k}'
p363
aaa(lp364
S'search.auone.jp'
p365
a(lp366
S'auone'
p367
aS'q'
aS'?q={k}'
p368
aaa(lp369
S'sp-image.search.auone.jp'
p370
a(lp371
S'auone Images'
p372
aS'q'
aS'?q={k}'
p373
aaa(lp374
S'www2.austronaut.at'
p375
a(lp376
S'Austronaut'
p377
aS'q'
aaa(lp378
S'www1.austronaut.at'
p379
a(lp380
g377
aaa(lp381
S'search.babylon.com'
p382
a(lp383
S'Babylon'
p384
a(lp385
S'q'
aS'/\\/web\\/(.*)/'
p386
aaS'?q={k}'
p387
aaa(lp388
S'searchassist.babylon.com'
p389
a(lp390
g384
aaa(lp391
S'www.baidu.com'
p392
a(lp393
S'Baidu'
p394
a(lp395
S'wd'
p396
aS'word'
p397
aS'kw'
p398
aaS's?wd={k}'
p399
a(lp400
S'UTF-8'
p401
ag29
aaaa(lp402
S'www1.baidu.com'
p403
a(lp404
g394
aaa(lp405
S'm.baidu.com'
p406
a(lp407
g394
aaa(lp408
S'www.baidu.co.th'
p409
a(lp410
g394
aaa(lp411
S'zhidao.baidu.com'
p412
a(lp413
g394
aaa(lp414
S'tieba.baidu.com'
p415
a(lp416
g394
aaa(lp417
S'news.baidu.com'
p418
a(lp419
g394
aaa(lp420
S'web.gougou.com'
p421
a(lp422
g394
aS'search'
p423
aS'search?search={k}'
p424
aaa(lp425
S'cgi.search.biglobe.ne.jp'
p426
a(lp427
S'Biglobe'
p428
aS'q'
aS'cgi-bin/search-st?q={k}'
p429
aaa(lp430
S'images.search.biglobe.ne.jp'
p431
a(lp432
S'Biglobe Images'
p433
aS'q'
aS'cgi-bin/search-st?q={k}'
p434
aaa(lp435
S'bing.com'
p436
a(lp437
S'Bing'
p438
a(lp439
S'q'
aS'Q'
aaS'search?q={k}'
p440
aaa(lp441
S'{}.bing.com'
p442
a(lp443
g438
aaa(lp444
S'msnbc.msn.com'
p445
a(lp446
g438
aaa(lp447
S'dizionario.it.msn.com'
p448
a(lp449
g438
aaa(lp450
S'enciclopedia.it.msn.com'
p451
a(lp452
g438
aaa(lp453
S'cc.bingj.com'
p454
a(lp455
g438
aaa(lp456
S'bing.com/images/search'
p457
a(lp458
S'Bing Images'
p459
a(lp460
S'q'
aS'Q'
aaS'?q={k}'
p461
aaa(lp462
S'{}.bing.com/images/search'
p463
a(lp464
S'Bing Images'
p465
aaa(lp466
S'blekko.com'
p467
a(lp468
S'blekko'
p469
a(lp470
S'q'
aS'/\\/ws\\/(.*)/'
p471
aaS'ws/{k}'
p472
aaa(lp473
S'www.blogdigger.com'
p474
a(lp475
S'Blogdigger'
p476
aS'q'
aaa(lp477
S'www.blogpulse.com'
p478
a(lp479
S'Blogpulse'
p480
ag129
aS'search?query={k}'
p481
aaa(lp482
S'search.bluewin.ch'
p483
a(lp484
S'Bluewin'
p485
a(lp486
S'searchTerm'
p487
aS'q'
aaS'v2/index.php?q={k}'
p488
aaa(lp489
S'web.canoe.ca'
p490
a(lp491
S'Canoe.ca'
p492
aS'q'
aS'search?q={k}'
p493
aaa(lp494
S'search.centrum.cz'
p495
a(lp496
S'Centrum'
p497
aS'q'
aS'?q={k}'
p498
aaa(lp499
S'morfeo.centrum.cz'
p500
a(lp501
g497
aaa(lp502
S'www.charter.net'
p503
a(lp504
S'Charter'
p505
aS'q'
aS'search/index.php?q={k}'
p506
aaa(lp507
S'claro-search.com'
p508
a(lp509
S'Claro Search'
p510
aS'q'
aS'?q={k}'
p511
aaa(lp512
S'pesquisa.clix.pt'
p513
a(lp514
S'Clix'
p515
aS'question'
p516
aS'resultado.html?in=Mundial&question={k}'
p517
aaa(lp518
S'search.conduit.com'
p519
a(lp520
S'Conduit.com'
p521
aS'q'
aS'Results.aspx?q={k}'
p522
aaa(lp523
S'images.search.conduit.com'
p524
a(lp525
S'Conduit.com'
p526
aaa(lp527
S'search.comcast.net'
p528
a(lp529
S'Comcast'
p530
aS'q'
aS'?q={k}'
p531
aaa(lp532
S'www.crawler.com'
p533
a(lp534
S'Crawler'
p535
aS'q'
aS'search/results1.aspx?q={k}'
p536
aaa(lp537
S'websearch.cs.com'
p538
a(lp539
S'Compuserve.com (Enhanced by Google)'
p540
ag129
aS'cs/search?query={k}'
p541
aaa(lp542
S'www.cuil.com'
p543
a(lp544
S'Cuil'
p545
aS'q'
aS'search?q={k}'
p546
aaa(lp547
S'daemon-search.com'
p548
a(lp549
S'Daemon search'
p550
aS'q'
aS'explore/web?q={k}'
p551
aaa(lp552
S'my.daemon-search.com'
p553
a(lp554
S'Daemon search'
p555
aaa(lp556
S'www.dasoertliche.de'
p557
a(lp558
S'DasOertliche'
p559
ag398
aaa(lp560
S'www2.dasoertliche.de'
p561
a(lp562
g559
a(lp563
S'ph'
p564
ag398
aaaa(lp565
S'www1.dastelefonbuch.de'
p566
a(lp567
S'DasTelefonbuch'
p568
ag398
aaa(lp569
S'search.daum.net'
p570
a(lp571
S'Daum'
p572
aS'q'
aS'search?q={k}'
p573
aaa(lp574
S'smart.delfi.lv'
p575
a(lp576
S'Delfi lv'
p577
aS'q'
aS'find?q={k}'
p578
aaa(lp579
S'otsing.delfi.ee'
p580
a(lp581
S'Delfi EE'
p582
aS'q'
aS'find?q={k}'
p583
aaa(lp584
S'digg.com'
p585
a(lp586
S'Digg'
p587
aS's'
aS'search?s={k}'
p588
aaa(lp589
S'fr.dir.com'
p590
a(lp591
S'dir.com'
p592
aS'req'
p593
aaa(lp594
S'dmoz.org'
p595
a(lp596
S'dmoz'
p597
ag423
aaa(lp598
S'editors.dmoz.org'
p599
a(lp600
g597
aaa(lp601
S'duckduckgo.com'
p602
a(lp603
S'DuckDuckGo'
p604
aS'q'
aS'?q={k}'
p605
aaa(lp606
S'r.duckduckgo.com'
p607
a(lp608
g604
aaa(lp609
S'search.earthlink.net'
p610
a(lp611
S'Earthlink'
p612
aS'q'
aS'search?q={k}'
p613
aaa(lp614
S'ecosia.org'
p615
a(lp616
S'Ecosia'
p617
aS'q'
aS'search.php?q={k}'
p618
aaa(lp619
S'www.eniro.se'
p620
a(lp621
S'Eniro'
p622
a(lp623
S'q'
aS'search_word'
p624
aaS'query?q={k}'
p625
aaa(lp626
S'www.eurip.com'
p627
a(lp628
S'Eurip'
p629
aS'q'
aS'search/?q={k}'
p630
aaa(lp631
S'www.euroseek.com'
p632
a(lp633
S'Euroseek'
p634
aS'string'
p635
aS'system/search.cgi?string={k}'
p636
aaa(lp637
S'www.everyclick.com'
p638
a(lp639
S'Everyclick'
p640
aS'keyword'
p641
aaa(lp642
S'search.excite.it'
p643
a(lp644
S'Excite'
p645
aS'q'
aS'web/?q={k}'
p646
aaa(lp647
S'search.excite.fr'
p648
a(lp649
g645
aaa(lp650
S'search.excite.de'
p651
a(lp652
g645
aaa(lp653
S'search.excite.co.uk'
p654
a(lp655
g645
aaa(lp656
S'search.excite.es'
p657
a(lp658
g645
aaa(lp659
S'search.excite.nl'
p660
a(lp661
g645
aaa(lp662
S'msxml.excite.com'
p663
a(lp664
g645
aS'/\\/[^\\/]+\\/ws\\/results\\/[^\\/]+\\/([^\\/]+)/'
p665
aaa(lp666
S'www.excite.co.jp'
p667
a(lp668
g645
ag423
aS'search.gw?search={k}'
p669
aS'SHIFT_JIS'
p670
aaa(lp671
S'www.exalead.fr'
p672
a(lp673
S'Exalead'
p674
aS'q'
aS'search/results?q={k}'
p675
aaa(lp676
S'www.exalead.com'
p677
a(lp678
g674
aaa(lp679
S'eo.st'
p680
a(lp681
S'eo'
p682
aS'x_query'
p683
aS'cgi-bin/eolost.cgi?x_query={k}'
p684
aaa(lp685
S'www.facebook.com'
p686
a(lp687
S'Facebook'
p688
aS'q'
aS'search/?q={k}'
p689
aaa(lp690
S'www.fastbrowsersearch.com'
p691
a(lp692
S'Fast Browser Search'
p693
aS'q'
aS'results/results.aspx?q={k}'
p694
aaa(lp695
S'recherche.francite.com'
p696
a(lp697
S'Francite'
p698
aS'name'
p699
aaa(lp700
S'www.findhurtig.dk'
p701
a(lp702
S'Findhurtig'
p703
aS'q'
aS'web?q={k}'
p704
aaa(lp705
S'www.fireball.de'
p706
a(lp707
S'Fireball'
p708
aS'q'
aS'ajax.asp?q={k}'
p709
aaa(lp710
S'www.firstsfind.com'
p711
a(lp712
S'Firstsfind'
p713
aS'qry'
p714
aaa(lp715
S'www.fixsuche.de'
p716
a(lp717
S'Fixsuche'
p718
aS'q'
aaa(lp719
S'www.flix.de'
p720
a(lp721
S'Flix.de'
p722
ag641
aaa(lp723
S'forestle.org'
p724
a(lp725
S'Forestle'
p726
aS'q'
aS'search.php?q={k}'
p727
aaa(lp728
S'{}.forestle.org'
p729
a(lp730
g726
aaa(lp731
S'forestle.mobi'
p732
a(lp733
g726
aaa(lp734
S'search.free.fr'
p735
a(lp736
S'Free'
p737
aS'q'
aaa(lp738
S'search1-2.free.fr'
p739
a(lp740
g737
aaa(lp741
S'search1-1.free.fr'
p742
a(lp743
g737
aaa(lp744
S'search.freecause.com'
p745
a(lp746
S'FreeCause'
p747
aS'p'
aS'?p={k}'
p748
aaa(lp749
S'suche.freenet.de'
p750
a(lp751
S'Freenet'
p752
a(lp753
g129
ag266
aaS'suche/?query={k}'
p754
aaa(lp755
S'friendfeed.com'
p756
a(lp757
S'FriendFeed'
p758
aS'q'
aS'search?q={k}'
p759
aaa(lp760
S'gais.cs.ccu.edu.tw'
p761
a(lp762
S'GAIS'
p763
aS'q'
aS'search.php?q={k}'
p764
aaa(lp765
S'search.genieo.com'
p766
a(lp767
S'Genieo'
p768
aS'q'
aS'&q={k}'
p769
aaa(lp770
S'geona.net'
p771
a(lp772
S'Geona'
p773
aS'q'
aS'search?q={k}'
p774
aaa(lp775
S'www.gigablast.com'
p776
a(lp777
S'Gigablast'
p778
aS'q'
aS'search?q={k}'
p779
aaa(lp780
S'dir.gigablast.com'
p781
a(lp782
S'Gigablast (Directory)'
p783
aS'q'
aaa(lp784
S'www.gnadenmeer.de'
p785
a(lp786
S'Gnadenmeer'
p787
ag641
aaa(lp788
S'www.gomeo.com'
p789
a(lp790
S'Gomeo'
p791
a(lp792
g266
aS'/\\/search\\/([^\\/]+)/'
p793
aaS'/search/{k}'
p794
aaa(lp795
S'search.goo.ne.jp'
p796
a(lp797
S'goo'
p798
aS'MT'
p799
aS'web.jsp?MT={k}'
p800
aaa(lp801
S'ocnsearch.goo.ne.jp'
p802
a(lp803
g798
aaa(lp804
S'google.com'
p805
a(lp806
S'Google'
p807
aS'q'
aS'search?q={k}'
p808
aaa(lp809
S'google.{}'
p810
a(lp811
g807
aaa(lp812
S'www2.google.com'
p813
a(lp814
g807
aaa(lp815
S'ipv6.google.com'
p816
a(lp817
g807
aaa(lp818
S'go.google.com'
p819
a(lp820
g807
aaa(lp821
S'wwwgoogle.com'
p822
a(lp823
g807
aaa(lp824
S'wwwgoogle.{}'
p825
a(lp826
g807
aaa(lp827
S'gogole.com'
p828
a(lp829
g807
aaa(lp830
S'gogole.{}'
p831
a(lp832
g807
aaa(lp833
S'gppgle.com'
p834
a(lp835
g807
aaa(lp836
S'gppgle.{}'
p837
a(lp838
g807
aaa(lp839
S'googel.com'
p840
a(lp841
g807
aaa(lp842
S'googel.{}'
p843
a(lp844
g807
aaa(lp845
S'search.avg.com'
p846
a(lp847
g807
aaa(lp848
S'isearch.avg.com'
p849
a(lp850
g807
aaa(lp851
S'www.cnn.com'
p852
a(lp853
g807
ag129
aaa(lp854
S'darkoogle.com'
p855
a(lp856
g807
aaa(lp857
S'search.darkoogle.com'
p858
a(lp859
g807
aaa(lp860
S'search.foxtab.com'
p861
a(lp862
g807
aaa(lp863
S'www.gooofullsearch.com'
p864
a(lp865
g807
ag266
aaa(lp866
S'search.hiyo.com'
p867
a(lp868
g807
aaa(lp869
S'search.incredimail.com'
p870
a(lp871
g807
aaa(lp872
S'search1.incredimail.com'
p873
a(lp874
g807
aaa(lp875
S'search2.incredimail.com'
p876
a(lp877
g807
aaa(lp878
S'search3.incredimail.com'
p879
a(lp880
g807
aaa(lp881
S'search4.incredimail.com'
p882
a(lp883
g807
aaa(lp884
S'search.sweetim.com'
p885
a(lp886
g807
aaa(lp887
S'www.fastweb.it'
p888
a(lp889
g807
aaa(lp890
S'search.juno.com'
p891
a(lp892
g807
ag129
aaa(lp893
S'find.tdc.dk'
p894
a(lp895
g807
aaa(lp896
S'it.luna.tv'
p897
a(lp898
g807
aaa(lp899
S'searchresults.verizon.com'
p900
a(lp901
g807
aaa(lp902
S'search.walla.co.il'
p903
a(lp904
g807
aaa(lp905
S'search.alot.com'
p906
a(lp907
g807
aaa(lp908
S'suche.gmx.net'
p909
a(lp910
g807
aS'q'
aS'web?q={k}'
p911
aaa(lp912
S'search.incredibar.com'
p913
a(lp914
g807
aS'q'
aS'search.php?q={k}'
p915
aaa(lp916
S'www.delta-search.com'
p917
a(lp918
g807
aS'q'
aaa(lp919
S'www1.delta-search.com'
p920
a(lp921
g807
aS'q'
aaa(lp922
S'search.1und1.de'
p923
a(lp924
g807
aS'q'
aS'web?q={k}'
p925
aaa(lp926
S'suche.1und1.de'
p927
a(lp928
g807
aS'q'
aS'web?q={k}'
p929
aaa(lp930
S'search.zonealarm.com'
p931
a(lp932
g807
aaa(lp933
S'start.lenovo.com'
p934
a(lp935
g807
aS'q'
aS'search/index.php?q={k}'
p936
aaa(lp937
S'wow.com'
p938
a(lp939
g807
aaa(lp940
S'{}.wow.com'
p941
a(lp942
g807
aaa(lp943
S'search.leonardo.it'
p944
a(lp945
g807
aaa(lp946
S'www.optuszoo.com.au'
p947
a(lp948
g807
aaa(lp949
S'search.dolphin-browser.jp'
p950
a(lp951
g807
aaa(lp952
S'search.smt.docomo.ne.jp'
p953
a(lp954
g807
ag799
aaa(lp955
S'image.search.smt.docomo.ne.jp'
p956
a(lp957
g807
ag799
aaa(lp958
S'gfsoso.com'
p959
a(lp960
g807
aS'q'
aaa(lp961
S'searches.safehomepage.com'
p962
a(lp963
g807
aS'q'
aaa(lp964
S'searches.f-secure.com'
p965
a(lp966
g807
ag129
aS'search?query={k}'
p967
aaa(lp968
S'startgoogle.startpagina.nl'
p969
a(lp970
S'Startpagina (Google)'
p971
aS'q'
aS'?q={k}'
p972
aaa(lp973
S'webcache.googleusercontent.com'
p974
a(lp975
g807
aS'/\\/search\\?q=cache:[A-Za-z0-9]+:[^+]+([^&]+)/'
p976
aS'search?q={k}'
p977
aaa(lp978
S'encrypted.google.com'
p979
a(lp980
S'Google SSL'
p981
aS'q'
aS'search?q={k}'
p982
aaa(lp983
S'blogsearch.google.com'
p984
a(lp985
S'Google Blogsearch'
p986
aS'q'
aS'blogsearch?q={k}'
p987
aaa(lp988
S'blogsearch.google.{}'
p989
a(lp990
S'Google Blogsearch'
p991
aaa(lp992
S'google.com/cse'
p993
a(lp994
S'Google Custom Search'
p995
a(lp996
S'q'
ag129
aaaa(lp997
S'google.{}/cse'
p998
a(lp999
S'Google Custom Search'
p1000
aaa(lp1001
S'google.com/custom'
p1002
a(lp1003
S'Google Custom Search'
p1004
aaa(lp1005
S'google.{}/custom'
p1006
a(lp1007
S'Google Custom Search'
p1008
aaa(lp1009
S'translate.google.com'
p1010
a(lp1011
S'Google Translations'
p1012
aS'q'
aaa(lp1013
S'images.google.com'
p1014
a(lp1015
S'Google Images'
p1016
aS'q'
aS'images?q={k}'
p1017
aaa(lp1018
S'images.google.{}'
p1019
a(lp1020
S'Google Images'
p1021
aaa(lp1022
S'maps.google.com'
p1023
a(lp1024
S'Google Maps'
p1025
aS'q'
aS'maps?q={k}'
p1026
aaa(lp1027
S'maps.google.{}'
p1028
a(lp1029
S'Google Maps'
p1030
aaa(lp1031
S'news.google.com'
p1032
a(lp1033
S'Google News'
p1034
aS'q'
aaa(lp1035
S'news.google.{}'
p1036
a(lp1037
S'Google News'
p1038
aaa(lp1039
S'google.com/products'
p1040
a(lp1041
S'Google Shopping'
p1042
aS'q'
aS'?q={k}&tbm=shop'
p1043
aaa(lp1044
S'google.{}/products'
p1045
a(lp1046
S'Google Shopping'
p1047
aaa(lp1048
S'googlesyndicatedsearch.com'
p1049
a(lp1050
S'Google syndicated search'
p1051
aS'q'
aaa(lp1052
S'video.google.com'
p1053
a(lp1054
S'Google Video'
p1055
aS'q'
aS'search?q={k}&tbm=vid'
p1056
aaa(lp1057
S'scholar.google.com'
p1058
a(lp1059
S'Google Scholar'
p1060
aS'q'
aS'scholar?q={k}'
p1061
aaa(lp1062
S'scholar.google.{}'
p1063
a(lp1064
S'Google Scholar'
p1065
aaa(lp1066
S'www.goyellow.de'
p1067
a(lp1068
S'GoYellow.de'
p1069
aS'MDN'
p1070
aaa(lp1071
S'www.gulesider.no'
p1072
a(lp1073
S'Gule Sider'
p1074
aS'q'
aaa(lp1075
S'www.haosou.com'
p1076
a(lp1077
S'Haosou'
p1078
aS'q'
aS's?q={k}'
p1079
aaa(lp1080
S'www.highbeam.com'
p1081
a(lp1082
S'HighBeam'
p1083
aS'q'
aS'Search.aspx?q={k}'
p1084
aaa(lp1085
S'req.hit-parade.com'
p1086
a(lp1087
S'Hit-Parade'
p1088
aS'p7'
p1089
aS'general/recherche.asp?p7={k}'
p1090
aaa(lp1091
S'class.hit-parade.com'
p1092
a(lp1093
S'Hit-Parade'
p1094
aaa(lp1095
S'www.hit-parade.com'
p1096
a(lp1097
S'Hit-Parade'
p1098
aaa(lp1099
S'holmes.ge'
p1100
a(lp1101
S'Holmes'
p1102
aS'q'
aS'search.htm?q={k}'
p1103
aaa(lp1104
S'www.hooseek.com'
p1105
a(lp1106
S'Hooseek'
p1107
aS'recherche'
p1108
aS'web?recherche={k}'
p1109
aaa(lp1110
S'www.hotbot.com'
p1111
a(lp1112
S'Hotbot'
p1113
ag129
aaa(lp1114
S'blogs.icerocket.com'
p1115
a(lp1116
S'Icerocket'
p1117
aS'q'
aS'search?q={k}'
p1118
aaa(lp1119
S'www.icq.com'
p1120
a(lp1121
S'ICQ'
p1122
aS'q'
aS'search/results.php?q={k}'
p1123
aaa(lp1124
S'search.icq.com'
p1125
a(lp1126
g1122
aaa(lp1127
S'www.ilse.nl'
p1128
a(lp1129
S'Ilse NL'
p1130
aS'search_for'
p1131
aS'?search_for={k}'
p1132
aaa(lp1133
S'search.imesh.com'
p1134
a(lp1135
S'iMesh'
p1136
a(lp1137
S'q'
aS'si'
p1138
aaS'web?q={k}'
p1139
aaa(lp1140
S'www2.inbox.com'
p1141
a(lp1142
S'Inbox'
p1143
aS'q'
aS'search/results1.aspx?q={k}'
p1144
aaa(lp1145
S'infospace.com'
p1146
a(lp1147
S'InfoSpace'
p1148
aS'q'
aS'/search/web?q={k}'
p1149
aaa(lp1150
S'dogpile.com'
p1151
a(lp1152
g1148
aaa(lp1153
S'tattoodle.com'
p1154
a(lp1155
g1148
aaa(lp1156
S'metacrawler.com'
p1157
a(lp1158
g1148
aaa(lp1159
S'webfetch.com'
p1160
a(lp1161
g1148
aaa(lp1162
S'webcrawler.com'
p1163
a(lp1164
g1148
aaa(lp1165
S'search.kiwee.com'
p1166
a(lp1167
g1148
aaa(lp1168
S'searches.vi-view.com'
p1169
a(lp1170
g1148
aaa(lp1171
S'search.webssearches.com'
p1172
a(lp1173
g1148
aaa(lp1174
S'search.fbdownloader.com'
p1175
a(lp1176
g1148
aaa(lp1177
S'searches3.globososo.com'
p1178
a(lp1179
g1148
aaa(lp1180
S'wsdsold.infospace.com'
p1181
a(lp1182
g1148
aS'/\\/[^\\/]+\\/ws\\/results\\/[^\\/]+\\/([^\\/]+)/'
p1183
aS'pemonitorhosted/ws/results/Web/{k}/1/417/TopNavigation/Source/'
p1184
aaa(lp1185
S'isearch.babylon.com'
p1186
a(lp1187
g1148
aS'q'
aaa(lp1188
S'start.facemoods.com'
p1189
a(lp1190
g1148
aS's'
aaa(lp1191
S'start.funmoods.com'
p1192
a(lp1193
g1148
aS'q'
aaa(lp1194
S'search.magentic.com'
p1195
a(lp1196
g1148
aS'q'
aaa(lp1197
S'search.searchcompletion.com'
p1198
a(lp1199
g1148
aS'q'
aaa(lp1200
S'www.searchmobileonline.com'
p1201
a(lp1202
g1148
aS'q'
aaa(lp1203
S'isearch.glarysoft.com'
p1204
a(lp1205
g1148
aS'q'
aaa(lp1206
S'search.chatzum.com'
p1207
a(lp1208
g1148
aS'q'
aaa(lp1209
S'home.speedbit.com'
p1210
a(lp1211
g1148
aS'q'
aaa(lp1212
S'search.b1.org'
p1213
a(lp1214
g1148
aS'q'
aaa(lp1215
S'searchya.com'
p1216
a(lp1217
g1148
aS'q'
aaa(lp1218
S'search.handycafe.com'
p1219
a(lp1220
g1148
aS'q'
aaa(lp1221
S'search.v9.com'
p1222
a(lp1223
g1148
aS'q'
aaa(lp1224
S'search.iminent.com'
p1225
a(lp1226
g1148
aS'q'
aaa(lp1227
S'utorrent.inspsearch.com'
p1228
a(lp1229
g1148
aS'q'
aaa(lp1230
S'www.google.interia.pl'
p1231
a(lp1232
S'Interia'
p1233
aS'q'
aS'szukaj?q={k}'
p1234
aaa(lp1235
S'start.iplay.com'
p1236
a(lp1237
S'I-play'
p1238
aS'q'
aS'searchresults.aspx?q={k}'
p1239
aaa(lp1240
S'ixquick.com'
p1241
a(lp1242
S'Ixquick'
p1243
ag129
aaa(lp1244
S'www.eu.ixquick.com'
p1245
a(lp1246
g1243
aaa(lp1247
S'ixquick.de'
p1248
a(lp1249
g1243
aaa(lp1250
S'www.ixquick.de'
p1251
a(lp1252
g1243
aaa(lp1253
S'us.ixquick.com'
p1254
a(lp1255
g1243
aaa(lp1256
S's1.us.ixquick.com'
p1257
a(lp1258
g1243
aaa(lp1259
S's2.us.ixquick.com'
p1260
a(lp1261
g1243
aaa(lp1262
S's3.us.ixquick.com'
p1263
a(lp1264
g1243
aaa(lp1265
S's4.us.ixquick.com'
p1266
a(lp1267
g1243
aaa(lp1268
S's5.us.ixquick.com'
p1269
a(lp1270
g1243
aaa(lp1271
S'eu.ixquick.com'
p1272
a(lp1273
g1243
aaa(lp1274
S's8-eu.ixquick.com'
p1275
a(lp1276
g1243
aaa(lp1277
S's1-eu.ixquick.de'
p1278
a(lp1279
g1243
aaa(lp1280
S's2-eu4.ixquick.com'
p1281
a(lp1282
g1243
aaa(lp1283
S's5-eu4.ixquick.com'
p1284
a(lp1285
g1243
aaa(lp1286
S'jyxo.1188.cz'
p1287
a(lp1288
S'Jyxo'
p1289
aS'q'
aS's?q={k}'
p1290
aaa(lp1291
S'www.jungle-spider.de'
p1292
a(lp1293
S'Jungle Spider'
p1294
aS'q'
aaa(lp1295
S'junglekey.com'
p1296
a(lp1297
S'Jungle Key'
p1298
ag129
aS'search.php?query={k}&type=web&lang=en'
p1299
aaa(lp1300
S'junglekey.fr'
p1301
a(lp1302
S'Jungle Key'
p1303
aaa(lp1304
S'k9safesearch.com'
p1305
a(lp1306
S'K9 Safe Search'
p1307
aS'q'
aS'search.jsp?q={k}'
p1308
aaa(lp1309
S'www.kataweb.it'
p1310
a(lp1311
S'Kataweb'
p1312
aS'q'
aaa(lp1313
S'www.kvasir.no'
p1314
a(lp1315
S'Kvasir'
p1316
aS'q'
aS'alle?q={k}'
p1317
aaa(lp1318
S'www.latne.lv'
p1319
a(lp1320
S'Latne'
p1321
aS'q'
aS'siets.php?q={k}'
p1322
aaa(lp1323
S'www.toile.com'
p1324
a(lp1325
S'La Toile Du Qu\xc3\xa9bec (Google)'
p1326
aS'q'
aS'search?q={k}'
p1327
aaa(lp1328
S'web.toile.com'
p1329
a(lp1330
S'La Toile Du Qu\xc3\xa9bec (Google)'
p1331
aaa(lp1332
S'www.lookany.com'
p1333
a(lp1334
S'LookAny'
p1335
aS'/(?:search|images|videos)\\/([^\\/]+)/'
p1336
aaa(lp1337
S'www.looksmart.com'
p1338
a(lp1339
S'Looksmart'
p1340
aS'key'
p1341
aaa(lp1342
S'lo.st'
p1343
a(lp1344
S'Lo.st'
p1345
ag683
aS'cgi-bin/eolost.cgi?x_query={k}'
p1346
aaa(lp1347
S'search.lycos.com'
p1348
a(lp1349
S'Lycos'
p1350
ag129
aS'?query={k}'
p1351
aaa(lp1352
S'lycos.{}'
p1353
a(lp1354
g1350
aaa(lp1355
S'www.maailm.com'
p1356
a(lp1357
S'maailm.com'
p1358
aS'tekst'
p1359
aaa(lp1360
S'go.mail.ru'
p1361
a(lp1362
S'Mailru'
p1363
aS'q'
aS'search?rch=e&q={k}'
p1364
a(lp1365
S'UTF-8'
p1366
aS'windows-1251'
p1367
aaaa(lp1368
S'www.mamma.com'
p1369
a(lp1370
S'Mamma'
p1371
ag129
aS'result.php?q={k}'
p1372
aaa(lp1373
S'mamma75.mamma.com'
p1374
a(lp1375
g1371
aaa(lp1376
S'meta.ua'
p1377
a(lp1378
S'Meta.ua'
p1379
aS'q'
aS'search.asp?q={k}'
p1380
aaa(lp1381
S's1.metacrawler.de'
p1382
a(lp1383
S'MetaCrawler DE'
p1384
ag714
aS'?qry={k}'
p1385
aaa(lp1386
S's2.metacrawler.de'
p1387
a(lp1388
S'MetaCrawler DE'
p1389
aaa(lp1390
S's3.metacrawler.de'
p1391
a(lp1392
S'MetaCrawler DE'
p1393
aaa(lp1394
S'meta.rrzn.uni-hannover.de'
p1395
a(lp1396
S'Metager'
p1397
aS'eingabe'
p1398
aS'meta/cgi-bin/meta.ger1?eingabe={k}'
p1399
aaa(lp1400
S'www.metager.de'
p1401
a(lp1402
g1397
aaa(lp1403
S'metager.de'
p1404
a(lp1405
g1397
aaa(lp1406
S'metager2.de'
p1407
a(lp1408
S'Metager2'
p1409
aS'q'
aS'search/index.php?q={k}'
p1410
aaa(lp1411
S'www.meinestadt.de'
p1412
a(lp1413
S'Meinestadt.de'
p1414
ag112
aaa(lp1415
S'www.mister-wong.com'
p1416
a(lp1417
S'Mister Wong'
p1418
aS'keywords'
p1419
aS'search/?keywords={k}'
p1420
aaa(lp1421
S'www.mister-wong.de'
p1422
a(lp1423
S'Mister Wong'
p1424
aaa(lp1425
S'www.monstercrawler.com'
p1426
a(lp1427
S'Monstercrawler'
p1428
ag714
aaa(lp1429
S'www.mozbot.fr'
p1430
a(lp1431
S'mozbot'
p1432
aS'q'
aS'results.php?q={k}'
p1433
aaa(lp1434
S'www.mozbot.co.uk'
p1435
a(lp1436
g1432
aaa(lp1437
S'www.mozbot.com'
p1438
a(lp1439
g1432
aaa(lp1440
S'ariadna.elmundo.es'
p1441
a(lp1442
S'El Mundo'
p1443
aS'q'
aaa(lp1444
S'searchservice.myspace.com'
p1445
a(lp1446
S'MySpace'
p1447
ag714
aS'index.cfm?fuseaction=sitesearch.results&type=Web&qry={k}'
p1448
aaa(lp1449
S'www.mysearch.com'
p1450
a(lp1451
S'MyWebSearch'
p1452
a(lp1453
g282
aS'searchFor'
p1454
aaS'search/Ajmain.jhtml?searchfor={k}'
p1455
aaa(lp1456
S'ms114.mysearch.com'
p1457
a(lp1458
g1452
aaa(lp1459
S'ms146.mysearch.com'
p1460
a(lp1461
g1452
aaa(lp1462
S'kf.mysearch.myway.com'
p1463
a(lp1464
g1452
aaa(lp1465
S'ki.mysearch.myway.com'
p1466
a(lp1467
g1452
aaa(lp1468
S'search.myway.com'
p1469
a(lp1470
g1452
aaa(lp1471
S'search.mywebsearch.com'
p1472
a(lp1473
g1452
aaa(lp1474
S'www.najdi.si'
p1475
a(lp1476
S'Najdi.si'
p1477
aS'q'
aS'search.jsp?q={k}'
p1478
aaa(lp1479
S'search.nate.com'
p1480
a(lp1481
S'Nate'
p1482
aS'q'
aS'search/all.html?q={k}'
p1483
aS'EUC-KR'
p1484
aaa(lp1485
S'search.naver.com'
p1486
a(lp1487
S'Naver'
p1488
ag129
aS'search.naver?query={k}'
p1489
aaa(lp1490
S'ko.search.need2find.com'
p1491
a(lp1492
S'Needtofind'
p1493
ag282
aS'search/AJmain.jhtml?searchfor={k}'
p1494
aaa(lp1495
S'www.neti.ee'
p1496
a(lp1497
S'Neti'
p1498
ag129
aS'cgi-bin/otsing?query={k}'
p1499
aS'iso-8859-1'
p1500
aaa(lp1501
S'search.nifty.com'
p1502
a(lp1503
S'Nifty'
p1504
a(lp1505
S'q'
aS'Text'
p1506
aaS'websearch/search?q={k}'
p1507
aaa(lp1508
S'search.azby.fmworld.net'
p1509
a(lp1510
g1504
aaa(lp1511
S'videosearch.nifty.com'
p1512
a(lp1513
S'Nifty Videos'
p1514
ag398
aS'search?kw={k}'
p1515
aaa(lp1516
S'nigma.ru'
p1517
a(lp1518
S'Nigma'
p1519
aS's'
aS'index.php?s={k}'
p1520
aaa(lp1521
S'szukaj.onet.pl'
p1522
a(lp1523
S'Onet.pl'
p1524
aS'qt'
p1525
aS'query.html?qt={k}'
p1526
aaa(lp1527
S'online.no'
p1528
a(lp1529
S'Online.no'
p1530
aS'q'
aS'google/index.jsp?q={k}'
p1531
aaa(lp1532
S'www.1881.no'
p1533
a(lp1534
S'Opplysningen 1881'
p1535
aS'Query'
p1536
aS'Multi/?Query={k}'
p1537
aaa(lp1538
S'busca.orange.es'
p1539
a(lp1540
S'Orange'
p1541
aS'q'
aS'search?q={k}'
p1542
aaa(lp1543
S'lemoteur.ke.voila.fr'
p1544
a(lp1545
g1541
ag398
aS'?kw={k}'
p1546
aaa(lp1547
S'www.paperball.de'
p1548
a(lp1549
S'Paperball'
p1550
aS'q'
aS'suche/s/?q={k}'
p1551
aaa(lp1552
S'search.peoplepc.com'
p1553
a(lp1554
S'PeoplePC'
p1555
aS'q'
aS'search?q={k}'
p1556
aaa(lp1557
S'extern.peoplecheck.de'
p1558
a(lp1559
S'PeopleCheck'
p1560
aS'q'
aS'link.php?q={k}'
p1561
aaa(lp1562
S'www.picsearch.com'
p1563
a(lp1564
S'Picsearch'
p1565
aS'q'
aS'index.cgi?q={k}'
p1566
aaa(lp1567
S'www.plazoo.com'
p1568
a(lp1569
S'Plazoo'
p1570
aS'q'
aaa(lp1571
S'plusnetwork.com'
p1572
a(lp1573
S'PlusNetwork'
p1574
aS'q'
aS'?q={k}'
p1575
aaa(lp1576
S'poisk.ru'
p1577
a(lp1578
S'Poisk.Ru'
p1579
aS'text'
p1580
aS'cgi-bin/poisk?text={k}'
p1581
aS'windows-1251'
p1582
aaa(lp1583
S'search.qip.ru'
p1584
a(lp1585
S'qip.ru'
p1586
ag129
aS'search?query={k}'
p1587
aaa(lp1588
S'www.qualigo.at'
p1589
a(lp1590
S'Qualigo'
p1591
aS'q'
aaa(lp1592
S'www.qualigo.ch'
p1593
a(lp1594
g1591
aaa(lp1595
S'www.qualigo.de'
p1596
a(lp1597
g1591
aaa(lp1598
S'www.qualigo.nl'
p1599
a(lp1600
g1591
aaa(lp1601
S'www.qwant.com'
p1602
a(lp1603
S'Qwant'
p1604
aS'q'
aaa(lp1605
S'websearch.rakuten.co.jp'
p1606
a(lp1607
S'Rakuten'
p1608
ag1525
aS'WebIS?qt={k}'
p1609
aaa(lp1610
S'nova.rambler.ru'
p1611
a(lp1612
S'Rambler'
p1613
a(lp1614
g129
ag112
aaS'search?query={k}'
p1615
aaa(lp1616
S'rpmfind.net'
p1617
a(lp1618
S'rpmfind'
p1619
ag129
aS'linux/rpm2html/search.php?query={k}'
p1620
aaa(lp1621
S'fr2.rpmfind.net'
p1622
a(lp1623
g1619
aaa(lp1624
S'search.rr.com'
p1625
a(lp1626
S'Road Runner'
p1627
aS'q'
aS'?q={k}'
p1628
aaa(lp1629
S'pesquisa.sapo.pt'
p1630
a(lp1631
S'Sapo'
p1632
aS'q'
aS'?q={k}'
p1633
aaa(lp1634
S'scour.com'
p1635
a(lp1636
S'Scour.com'
p1637
aS'/search\\/[^\\/]+\\/(.*)/'
p1638
aS'search/web/{k}'
p1639
aaa(lp1640
S'www.search.com'
p1641
a(lp1642
S'Search.com'
p1643
aS'q'
aS'search?q={k}'
p1644
aaa(lp1645
S'www.search.ch'
p1646
a(lp1647
S'Search.ch'
p1648
aS'q'
aS'?q={k}'
p1649
aaa(lp1650
S'searchalot.com'
p1651
a(lp1652
S'Searchalot'
p1653
aS'q'
aS'?q={k}'
p1654
aaa(lp1655
S'www.searchcanvas.com'
p1656
a(lp1657
S'SearchCanvas'
p1658
aS'q'
aS'web?q={k}'
p1659
aaa(lp1660
S'www.searchy.co.uk'
p1661
a(lp1662
S'Searchy'
p1663
aS'q'
aS'index.html?q={k}'
p1664
aaa(lp1665
S'bg.setooz.com'
p1666
a(lp1667
S'Setooz'
p1668
ag129
aS'search?query={k}'
p1669
aaa(lp1670
S'da.setooz.com'
p1671
a(lp1672
g1668
aaa(lp1673
S'el.setooz.com'
p1674
a(lp1675
g1668
aaa(lp1676
S'fa.setooz.com'
p1677
a(lp1678
g1668
aaa(lp1679
S'ur.setooz.com'
p1680
a(lp1681
g1668
aaa(lp1682
S'{}.setooz.com'
p1683
a(lp1684
g1668
aaa(lp1685
S'search.seznam.cz'
p1686
a(lp1687
S'Seznam'
p1688
aS'q'
aS'?q={k}'
p1689
aaa(lp1690
S'videa.seznam.cz'
p1691
a(lp1692
S'Seznam Videa'
p1693
aS'q'
aS'?q={k}'
p1694
aaa(lp1695
S'www.sharelook.fr'
p1696
a(lp1697
S'Sharelook'
p1698
ag641
aaa(lp1699
S'www.skynet.be'
p1700
a(lp1701
S'Skynet'
p1702
aS'q'
aS'services/recherche/google?q={k}'
p1703
aaa(lp1704
S'm.sm.cn'
p1705
a(lp1706
S'sm.cn'
p1707
aS'q'
aS's?q={k}'
p1708
aaa(lp1709
S'so.m.sm.cn'
p1710
a(lp1711
S'sm.cn'
p1712
aS'q'
aS's?q={k}'
p1713
aaa(lp1714
S'm.sp.sm.cn'
p1715
a(lp1716
S'sm.cn'
p1717
aaa(lp1718
S'{}.sm.cn'
p1719
a(lp1720
S'sm.cn'
p1721
aaa(lp1722
S'www.sm.de'
p1723
a(lp1724
S'sm.de'
p1725
aS'q'
aS'?q={k}'
p1726
aaa(lp1727
S'search.smartaddressbar.com'
p1728
a(lp1729
S'SmartAddressbar'
p1730
aS's'
aS'?s={k}'
p1731
aaa(lp1732
S'search.snap.do'
p1733
a(lp1734
S'Snap.do'
p1735
aS'q'
aS'?q={k}'
p1736
aaa(lp1737
S'search.seesaa.jp'
p1738
a(lp1739
S'SeeSaa'
p1740
aS'/\\/([^\\/]+)\\/index\\.html/'
p1741
aS'{k}/index.html'
p1742
aaa(lp1743
S'www.so-net.ne.jp'
p1744
a(lp1745
S'So-net'
p1746
ag129
aS'search/web/?query={k}'
p1747
aaa(lp1748
S'video.so-net.ne.jp'
p1749
a(lp1750
S'So-net Videos'
p1751
ag398
aS'search/?kw={k}'
p1752
aaa(lp1753
S'www.sogou.com'
p1754
a(lp1755
S'Sogou'
p1756
a(lp1757
g129
ag641
aaS'web?query={k}'
p1758
ag29
aaa(lp1759
S'm.sogou.com'
p1760
a(lp1761
g1756
a(lp1762
g129
ag641
aaaa(lp1763
S'{}.sogou.com'
p1764
a(lp1765
g1756
a(lp1766
g129
ag641
aaaa(lp1767
S'search.softonic.com'
p1768
a(lp1769
S'Softonic'
p1770
aS'q'
aS'default/default?q={k}'
p1771
aaa(lp1772
S'www.soso.com'
p1773
a(lp1774
S'Soso'
p1775
aS'w'
aS'q?w={k}'
p1776
ag29
aaa(lp1777
S'www.sputnik.ru'
p1778
a(lp1779
S'Sputnik'
p1780
aS'q'
aS'search?q={k}'
p1781
aaa(lp1782
S'www.startsiden.no'
p1783
a(lp1784
S'Startsiden'
p1785
aS'q'
aS'sok/index.html?q={k}'
p1786
aaa(lp1787
S'suche.info'
p1788
a(lp1789
S'Suche.info'
p1790
ag266
aS'suche.php?Keywords={k}'
p1791
aaa(lp1792
S'www.suchmaschine.com'
p1793
a(lp1794
S'Suchmaschine.com'
p1795
aS'suchstr'
p1796
aS'cgi-bin/wo.cgi?suchstr={k}'
p1797
aaa(lp1798
S'www.suchnase.de'
p1799
a(lp1800
S'Suchnase'
p1801
aS'q'
aaa(lp1802
S'surfcanyon.com'
p1803
a(lp1804
S'Surf Canyon'
p1805
aS'q'
aaa(lp1806
S'www.talimba.com'
p1807
a(lp1808
S'talimba'
p1809
ag423
aS'index.php?page=search/web&search={k}'
p1810
aaa(lp1811
S'www.talktalk.co.uk'
p1812
a(lp1813
S'TalkTalk'
p1814
ag129
aS'search/results.html?query={k}'
p1815
aaa(lp1816
S'technorati.com'
p1817
a(lp1818
S'Technorati'
p1819
aS'q'
aS'search?return=sites&authority=all&q={k}'
p1820
aaa(lp1821
S'www.teoma.com'
p1822
a(lp1823
S'Teoma'
p1824
aS'q'
aS'web?q={k}'
p1825
aaa(lp1826
S'buscador.terra.es'
p1827
a(lp1828
S'Terra'
p1829
ag129
aS'Default.aspx?source=Search&query={k}'
p1830
aaa(lp1831
S'buscador.terra.cl'
p1832
a(lp1833
g1829
aaa(lp1834
S'buscador.terra.com.br'
p1835
a(lp1836
g1829
aaa(lp1837
S'search.tiscali.it'
p1838
a(lp1839
S'Tiscali'
p1840
a(lp1841
S'q'
ag1341
aaS'?q={k}'
p1842
aaa(lp1843
S'search-dyn.tiscali.it'
p1844
a(lp1845
g1840
aaa(lp1846
S'hledani.tiscali.cz'
p1847
a(lp1848
g1840
ag129
aaa(lp1849
S'www.tixuma.de'
p1850
a(lp1851
S'Tixuma'
p1852
aS'sc'
p1853
aS'index.php?mp=search&stp=&sc={k}&tg=0'
p1854
aaa(lp1855
S'suche.t-online.de'
p1856
a(lp1857
S'T-Online'
p1858
aS'q'
aS'fast-cgi/tsc?mandant=toi&context=internet-tab&q={k}'
p1859
aaa(lp1860
S'brisbane.t-online.de'
p1861
a(lp1862
S'T-Online'
p1863
aaa(lp1864
S'navigationshilfe.t-online.de'
p1865
a(lp1866
S'T-Online'
p1867
aS'q'
aS'dtag/dns/results?mode=search_top&q={k}'
p1868
aaa(lp1869
S'www.toolbarhome.com'
p1870
a(lp1871
S'Toolbarhome'
p1872
aS'q'
aS'search.aspx?q={k}'
p1873
aaa(lp1874
S'vshare.toolbarhome.com'
p1875
a(lp1876
g1872
aaa(lp1877
S'www.toppreise.ch'
p1878
a(lp1879
S'Toppreise.ch'
p1880
ag423
aS'index.php?search={k}'
p1881
aS'ISO-8859-1'
p1882
aaa(lp1883
S'toppreise.ch'
p1884
a(lp1885
S'Toppreise.ch'
p1886
aNaNaS'ISO-8859-1'
p1887
aaa(lp1888
S'fr.toppreise.ch'
p1889
a(lp1890
S'Toppreise.ch'
p1891
aNaNaS'ISO-8859-1'
p1892
aaa(lp1893
S'de.toppreise.ch'
p1894
a(lp1895
S'Toppreise.ch'
p1896
aNaNaS'ISO-8859-1'
p1897
aaa(lp1898
S'en.toppreise.ch'
p1899
a(lp1900
S'Toppreise.ch'
p1901
aNaNaS'ISO-8859-1'
p1902
aaa(lp1903
S'www.trouvez.com'
p1904
a(lp1905
S'Trouvez.com'
p1906
ag129
aaa(lp1907
S'www.trovarapido.com'
p1908
a(lp1909
S'TrovaRapido'
p1910
aS'q'
aS'result.php?q={k}'
p1911
aaa(lp1912
S'www.trusted-search.com'
p1913
a(lp1914
S'Trusted Search'
p1915
aS'w'
aS'search?w={k}'
p1916
aaa(lp1917
S'www.twingly.com'
p1918
a(lp1919
S'Twingly'
p1920
aS'q'
aS'search?q={k}'
p1921
aaa(lp1922
S'busca.uol.com.br'
p1923
a(lp1924
S'uol.com.br'
p1925
aS'q'
aS'/web/?q={k}'
p1926
aaa(lp1927
S'www.url.org'
p1928
a(lp1929
S'URL.ORGanzier'
p1930
aS'q'
aS'?l=de&q={k}'
p1931
aaa(lp1932
S'www.vinden.nl'
p1933
a(lp1934
S'Vinden'
p1935
aS'q'
aS'?q={k}'
p1936
aaa(lp1937
S'www.vindex.nl'
p1938
a(lp1939
S'Vindex'
p1940
ag1131
aS'/web?search_for={k}'
p1941
aaa(lp1942
S'search.vindex.nl'
p1943
a(lp1944
g1940
aaa(lp1945
S'ricerca.virgilio.it'
p1946
a(lp1947
S'Virgilio'
p1948
ag106
aS'ricerca?qs={k}'
p1949
aaa(lp1950
S'ricercaimmagini.virgilio.it'
p1951
a(lp1952
g1948
aaa(lp1953
S'ricercavideo.virgilio.it'
p1954
a(lp1955
g1948
aaa(lp1956
S'ricercanews.virgilio.it'
p1957
a(lp1958
g1948
aaa(lp1959
S'mobile.virgilio.it'
p1960
a(lp1961
g1948
aS'qrs'
p1962
aaa(lp1963
S'search.ke.voila.fr'
p1964
a(lp1965
S'Voila'
p1966
aS'rdata'
p1967
aS'S/voila?rdata={k}'
p1968
aaa(lp1969
S'www.lemoteur.fr'
p1970
a(lp1971
g1966
aaa(lp1972
S'web.volny.cz'
p1973
a(lp1974
S'Volny'
p1975
ag423
aS'fulltext/?search={k}'
p1976
aS'windows-1250'
p1977
aaa(lp1978
S'www.walhello.info'
p1979
a(lp1980
S'Walhello'
p1981
ag1341
aS'search?key={k}'
p1982
aaa(lp1983
S'www.walhello.com'
p1984
a(lp1985
g1981
aaa(lp1986
S'www.walhello.de'
p1987
a(lp1988
g1981
aaa(lp1989
S'www.walhello.nl'
p1990
a(lp1991
g1981
aaa(lp1992
S'suche.web.de'
p1993
a(lp1994
S'Web.de'
p1995
a(lp1996
S'su'
p1997
aS'q'
aaS'search/web/?su={k}'
p1998
aaa(lp1999
S'm.suche.web.de'
p2000
a(lp2001
S'Web.de'
p2002
aaa(lp2003
S'www.web.nl'
p2004
a(lp2005
S'Web.nl'
p2006
aS'zoekwoord'
p2007
aaa(lp2008
S'www.weborama.fr'
p2009
a(lp2010
S'weborama'
p2011
aS'QUERY'
p2012
aaa(lp2013
S'www.websearch.com'
p2014
a(lp2015
S'WebSearch'
p2016
a(lp2017
S'qkw'
p2018
aS'q'
aaS'search/results2.aspx?q={k}'
p2019
aaa(lp2020
S'fr.wedoo.com'
p2021
a(lp2022
S'Wedoo'
p2023
ag641
aaa(lp2024
S'en.wedoo.com'
p2025
a(lp2026
g2023
aaa(lp2027
S'es.wedoo.com'
p2028
a(lp2029
g2023
aaa(lp2030
S'search.winamp.com'
p2031
a(lp2032
S'Winamp'
p2033
aS'q'
aS'search/search?q={k}'
p2034
aaa(lp2035
S'www.witch.de'
p2036
a(lp2037
S'Witch'
p2038
ag423
aS'search-result.php?cn=0&search={k}'
p2039
aaa(lp2040
S'szukaj.wp.pl'
p2041
a(lp2042
S'Wirtualna Polska'
p2043
aS'szukaj'
p2044
aS'http:#szukaj.wp.pl/szukaj.html?szukaj={k}'
p2045
aaa(lp2046
S'www.woopie.jp'
p2047
a(lp2048
S'Woopie'
p2049
ag398
aS'search?kw={k}'
p2050
aaa(lp2051
S'search.www.ee'
p2052
a(lp2053
S'www v\xc3\xa4rav'
p2054
ag129
aaa(lp2055
S'www.x-recherche.com'
p2056
a(lp2057
S'X-Recherche'
p2058
aS'MOTS'
p2059
aS'cgi-bin/websearch?MOTS={k}'
p2060
aaa(lp2061
S'search.yahoo.co.jp'
p2062
a(lp2063
S'Yahoo! Japan'
p2064
a(lp2065
S'p'
aS'vp'
p2066
aaS'search?p={k}'
p2067
aaa(lp2068
S'jp.hao123.com'
p2069
a(lp2070
S'Yahoo! Japan'
p2071
ag129
aaa(lp2072
S'video.search.yahoo.co.jp'
p2073
a(lp2074
S'Yahoo! Japan Videos'
p2075
aS'p'
aS'search?p={k}'
p2076
aaa(lp2077
S'image.search.yahoo.co.jp'
p2078
a(lp2079
S'Yahoo! Japan Images'
p2080
aS'p'
aS'search?p={k}'
p2081
aaa(lp2082
S'search.yahoo.com'
p2083
a(lp2084
S'Yahoo!'
p2085
a(lp2086
S'p'
aS'q'
aaS'search?p={k}'
p2087
aaa(lp2088
S'yahoo.com'
p2089
a(lp2090
S'Yahoo!'
p2091
aaa(lp2092
S'yahoo.{}'
p2093
a(lp2094
S'Yahoo!'
p2095
aaa(lp2096
S'{}.yahoo.com'
p2097
a(lp2098
S'Yahoo!'
p2099
aaa(lp2100
S'cade.yahoo.com'
p2101
a(lp2102
S'Yahoo!'
p2103
aaa(lp2104
S'espanol.yahoo.com'
p2105
a(lp2106
S'Yahoo!'
p2107
aaa(lp2108
S'qc.yahoo.com'
p2109
a(lp2110
S'Yahoo!'
p2111
aaa(lp2112
S'one.cn.yahoo.com'
p2113
a(lp2114
S'Yahoo!'
p2115
aaa(lp2116
S'www.cercato.it'
p2117
a(lp2118
S'Yahoo!'
p2119
aS'q'
aaa(lp2120
S'search.offerbox.com'
p2121
a(lp2122
S'Yahoo!'
p2123
aS'q'
aaa(lp2124
S'www.benefind.de'
p2125
a(lp2126
S'Yahoo!'
p2127
aS'q'
aaa(lp2128
S'ys.mirostart.com'
p2129
a(lp2130
S'Yahoo!'
p2131
aS'q'
aaa(lp2132
S'search.yahoo.com/search/dir'
p2133
a(lp2134
S'Yahoo! Directory'
p2135
aS'p'
aS'?p={k}'
p2136
aaa(lp2137
S'images.search.yahoo.com'
p2138
a(lp2139
S'Yahoo! Images'
p2140
a(lp2141
S'p'
aS'va'
p2142
aaS'search/images?p={k}'
p2143
aaa(lp2144
S'{}.images.yahoo.com'
p2145
a(lp2146
S'Yahoo! Images'
p2147
aaa(lp2148
S'cade.images.yahoo.com'
p2149
a(lp2150
S'Yahoo! Images'
p2151
aaa(lp2152
S'espanol.images.yahoo.com'
p2153
a(lp2154
S'Yahoo! Images'
p2155
aaa(lp2156
S'qc.images.yahoo.com'
p2157
a(lp2158
S'Yahoo! Images'
p2159
aaa(lp2160
S'search.yam.com'
p2161
a(lp2162
S'Yam'
p2163
aS'k'
aS'Search/Web/?SearchType=web&k={k}'
p2164
aaa(lp2165
S'yandex.ru'
p2166
a(lp2167
S'Yandex'
p2168
ag1580
aS'yandsearch?text={k}'
p2169
aaa(lp2170
S'yandex.com'
p2171
a(lp2172
g2168
aaa(lp2173
S'yandex.{}'
p2174
a(lp2175
g2168
aaa(lp2176
S'images.yandex.ru'
p2177
a(lp2178
S'Yandex Images'
p2179
ag1580
aS'yandsearch?text={k}'
p2180
aaa(lp2181
S'images.yandex.com'
p2182
a(lp2183
S'Yandex Images'
p2184
aaa(lp2185
S'images.yandex.{}'
p2186
a(lp2187
S'Yandex Images'
p2188
aaa(lp2189
S'www.yasni.de'
p2190
a(lp2191
S'Yasni'
p2192
ag129
aaa(lp2193
S'www.yasni.com'
p2194
a(lp2195
g2192
aaa(lp2196
S'www.yasni.co.uk'
p2197
a(lp2198
g2192
aaa(lp2199
S'www.yasni.ch'
p2200
a(lp2201
g2192
aaa(lp2202
S'www.yasni.at'
p2203
a(lp2204
g2192
aaa(lp2205
S'www.yatedo.com'
p2206
a(lp2207
S'Yatedo'
p2208
aS'q'
aS'search/profil?q={k}'
p2209
aaa(lp2210
S'www.yatedo.fr'
p2211
a(lp2212
g2208
aaa(lp2213
S'yellowmap.de'
p2214
a(lp2215
S'Yellowmap'
p2216
aS' '
aaa(lp2217
S'search.yippy.com'
p2218
a(lp2219
S'Yippy'
p2220
ag129
aS'search?query={k}'
p2221
aaa(lp2222
S'www.yougoo.fr'
p2223
a(lp2224
S'YouGoo'
p2225
aS'q'
aS'?cx=search&q={k}'
p2226
aaa(lp2227
S'www.zapmeta.com'
p2228
a(lp2229
S'Zapmeta'
p2230
a(lp2231
S'q'
ag129
aaS'?q={k}'
p2232
aaa(lp2233
S'zapmeta.{}'
p2234
a(lp2235
g2230
aaa(lp2236
S'uk.zapmeta.com'
p2237
a(lp2238
g2230
aaa(lp2239
S'ar.zapmeta.com'
p2240
a(lp2241
g2230
aaa(lp2242
S'au.zapmeta.com'
p2243
a(lp2244
g2230
aaa(lp2245
S'ca.zapmeta.com'
p2246
a(lp2247
g2230
aaa(lp2248
S'fi.zapmeta.com'
p2249
a(lp2250
g2230
aaa(lp2251
S'no.zapmeta.com'
p2252
a(lp2253
g2230
aaa(lp2254
S'tr.zapmeta.com'
p2255
a(lp2256
g2230
aaa(lp2257
S'www3.zoek.nl'
p2258
a(lp2259
S'Zoek'
p2260
aS'q'
aaa(lp2261
S'p.zhongsou.com'
p2262
a(lp2263
S'Zhongsou'
p2264
aS'w'
aS'p?w={k}'
p2265
aaa(lp2266
S'www.zoeken.nl'
p2267
a(lp2268
S'Zoeken'
p2269
aS'q'
aS'?q={k}'
p2270
aaa(lp2271
S'zoohoo.cz'
p2272
a(lp2273
S'Zoohoo'
p2274
aS'q'
aS'?q={k}'
p2275
aS'windows-1250'
p2276
aaa(lp2277
S'www.zoznam.sk'
p2278
a(lp2279
S'Zoznam'
p2280
aS's'
aS'hladaj.fcgi?s={k}&co=svet'
p2281
aaa(lp2282
S'www.zxuso.com'
p2283
a(lp2284
S'Zxuso'
p2285
ag396
aS'ri/?wd={k}'
p2286
aaatRp2287
.