Certificate:
    Data:
        Version: 3 (0x2)
        Serial Number: 268435696 (0x100000f0)
    Signature Algorithm: sha256WithRSAEncryption
        Issuer: C=DE, ST=Hessen, O=privacyidea, CN=CA001
        Validity
            Not Before: Apr 27 16:27:05 2017 GMT
            Not After : Apr 27 16:27:05 2018 GMT
        Subject: CN=selfservice,CN=user,O=realm1/emailAddress=meine
        Subject Public Key Info:
            Public Key Algorithm: rsaEncryption
                Public-Key: (2048 bit)
                Modulus:
                    00:cf:3c:d4:33:0e:12:c4:e6:da:cd:b6:56:a1:1c:
                    26:bb:26:1c:8a:4a:73:a8:58:8a:b6:1e:b3:8b:99:
                    d2:1d:07:c2:92:89:79:c0:69:d8:c8:df:28:61:98:
                    1e:b3:fe:ae:2b:bd:78:a9:f7:6e:47:dc:a3:a0:16:
                    8c:85:02:c1:4e:92:fd:72:6e:f0:c8:03:29:9b:b8:
                    00:6e:c0:83:95:c8:34:20:36:9c:b3:e5:e4:e6:76:
                    73:a3:1a:ad:40:96:e0:53:54:00:ec:76:79:9a:c6:
                    0d:7e:b6:bd:29:ec:83:f3:cb:89:a4:cb:6c:00:ba:
                    0c:c5:78:0f:ff:69:b8:94:f4:04:70:43:3f:d8:9e:
                    d7:a7:fb:5d:ce:75:8e:da:e7:c4:07:b1:9d:de:6f:
                    88:4b:b6:4d:9a:cf:f9:bc:fa:9f:cd:32:6d:f6:3a:
                    0b:0d:23:42:78:ec:97:42:bf:0e:4d:60:56:e1:d3:
                    02:f2:19:cb:84:57:90:e5:70:a1:a2:83:35:86:e2:
                    da:86:9f:f9:8a:c4:79:b3:52:28:da:cb:bb:34:ca:
                    d3:da:91:4a:cf:8d:76:a2:b2:6b:9b:f9:96:fd:09:
                    2a:da:11:23:4d:f0:cb:d6:b2:b1:0e:12:6c:9a:19:
                    65:98:87:ca:e4:ee:24:ce:44:ac:90:8f:9d:1b:c5:
                    2a:9d
                Exponent: 65537 (0x10001)
        X509v3 extensions:
            X509v3 Key Usage: 
                Digital Signature, Key Encipherment
            X509v3 Basic Constraints: 
                CA:FALSE
            Netscape Cert Type: 
                SSL Server
            Netscape Comment: 
                OpenSSL Generated Server Certificate
            X509v3 Subject Key Identifier: 
                4D:07:90:AD:FF:1D:0D:E7:1A:DD:D6:2E:FA:BA:34:CB:AA:1F:24:C6
            X509v3 Authority Key Identifier: 
                keyid:F4:A7:C0:CC:91:46:AF:64:F3:91:F2:27:F8:C8:B2:6F:8A:87:32:73
                DirName:/C=DE/ST=Hessen/O=privacyidea/CN=CA001
                serial:FB:C8:EB:AC:83:CD:12:07

            X509v3 Extended Key Usage: 
                TLS Web Server Authentication
    Signature Algorithm: sha256WithRSAEncryption
         8b:ba:68:02:96:46:d9:cc:f1:cf:07:a5:31:9a:7e:ce:1b:e6:
         94:6d:36:ef:71:af:e9:bf:22:33:c1:5d:5c:aa:26:0a:c1:0c:
         12:47:88:5e:33:00:d5:57:34:98:b7:d1:62:d1:73:d2:34:4f:
         e2:af:bc:e5:94:d7:47:d3:a7:f4:94:37:f5:ae:3d:63:0a:05:
         a1:9d:22:56:dc:ac:2a:b0:d4:06:81:7b:ac:4a:b7:03:4f:47:
         46:49:77:cb:06:24:b6:74:29:ad:c8:9b:81:7f:7e:67:48:5b:
         6f:48:b0:81:f0:92:29:74:fa:04:b6:cb:68:3e:2f:06:cb:67:
         38:ee:30:f2:a7:ba:9e:61:17:8e:5f:04:69:e5:3f:55:ea:50:
         ca:f2:aa:b5:1b:25:f1:ab:60:e5:d7:e8:4b:d4:41:38:22:5c:
         b8:95:f4:26:50:88:51:1a:6d:6d:33:84:42:a1:6f:21:b4:0f:
         6e:25:2a:8f:30:4c:68:53:17:5a:b4:ff:c8:a3:36:cb:f0:a2:
         3b:53:07:2d:e2:9d:cd:6a:17:1c:4d:b5:f4:5b:dc:89:29:83:
         ff:8d:c6:09:63:94:49:17:0a:38:f9:2c:ea:f0:50:eb:33:b8:
         42:b6:dd:df:ef:eb:27:a5:b6:ae:b9:a7:0c:83:8d:89:f7:27:
         b7:9c:e0:49
-----BEGIN CERTIFICATE-----
MIIEDzCCAvegAwIBAgIEEAAA8DANBgkqhkiG9w0BAQsFADBEMQswCQYDVQQGEwJE
RTEPMA0GA1UECAwGSGVzc2VuMRQwEgYDVQQKDAtwcml2YWN5aWRlYTEOMAwGA1UE
AwwFQ0EwMDEwHhcNMTcwNDI3MTYyNzA1WhcNMTgwNDI3MTYyNzA1WjA9MSUwIwYD
VQQDDBxzZWxmc2VydmljZSxDTj11c2VyLE89cmVhbG0xMRQwEgYJKoZIhvcNAQkB
FgVtZWluZTCCASIwDQYJKoZIhvcNAQEBBQADggEPADCCAQoCggEBAM881DMOEsTm
2s22VqEcJrsmHIpKc6hYirYes4uZ0h0HwpKJecBp2MjfKGGYHrP+riu9eKn3bkfc
o6AWjIUCwU6S/XJu8MgDKZu4AG7Ag5XINCA2nLPl5OZ2c6MarUCW4FNUAOx2eZrG
DX62vSnsg/PLiaTLbAC6DMV4D/9puJT0BHBDP9ie16f7Xc51jtrnxAexnd5viEu2
TZrP+bz6n80ybfY6Cw0jQnjsl0K/Dk1gVuHTAvIZy4RXkOVwoaKDNYbi2oaf+YrE
ebNSKNrLuzTK09qRSs+NdqKya5v5lv0JKtoRI03wy9aysQ4SbJoZZZiHyuTuJM5E
rJCPnRvFKp0CAwEAAaOCAQ4wggEKMAsGA1UdDwQEAwIFoDAJBgNVHRMEAjAAMBEG
CWCGSAGG+EIBAQQEAwIGQDAzBglghkgBhvhCAQ0EJhYkT3BlblNTTCBHZW5lcmF0
ZWQgU2VydmVyIENlcnRpZmljYXRlMB0GA1UdDgQWBBRNB5Ct/x0N5xrd1i76ujTL
qh8kxjB0BgNVHSMEbTBrgBT0p8DMkUavZPOR8if4yLJviocyc6FIpEYwRDELMAkG
A1UEBhMCREUxDzANBgNVBAgMBkhlc3NlbjEUMBIGA1UECgwLcHJpdmFjeWlkZWEx
DjAMBgNVBAMMBUNBMDAxggkA+8jrrIPNEgcwEwYDVR0lBAwwCgYIKwYBBQUHAwEw
DQYJKoZIhvcNAQELBQADggEBAIu6aAKWRtnM8c8HpTGafs4b5pRtNu9xr+m/IjPB
XVyqJgrBDBJHiF4zANVXNJi30WLRc9I0T+KvvOWU10fTp/SUN/WuPWMKBaGdIlbc
rCqw1AaBe6xKtwNPR0ZJd8sGJLZ0Ka3Im4F/fmdIW29IsIHwkil0+gS2y2g+LwbL
ZzjuMPKnup5hF45fBGnlP1XqUMryqrUbJfGrYOXX6EvUQTgiXLiV9CZQiFEabW0z
hEKhbyG0D24lKo8wTGhTF1q0/8ijNsvwojtTBy3inc1qFxxNtfRb3Ikpg/+Nxglj
lEkXCjj5LOrwUOszuEK23d/v6yeltq65pwyDjYn3J7ec4Ek=
-----END CERTIFICATE-----
