Certificate:
    Data:
        Version: 3 (0x2)
        Serial Number: 268435720 (0x10000108)
    Signature Algorithm: sha1WithRSAEncryption
        Issuer: C=DE, ST=Hessen, O=privacyidea, CN=CA001
        Validity
            Not Before: Apr 26 15:03:21 2016 GMT
            Not After : Apr 26 15:03:21 2017 GMT
        Subject: OU=local, CN=corny/emailAddress=corny@cornelinux.de
        Subject Public Key Info:
            Public Key Algorithm: rsaEncryption
                Public-Key: (2048 bit)
                Modulus:
                    00:b0:50:bf:87:8b:55:65:39:0a:4b:05:b2:2c:c2:
                    f0:eb:b1:38:fd:8c:77:d5:f6:3c:9f:e9:09:1a:9d:
                    42:01:d0:5d:69:a2:b3:95:b5:c9:58:fd:17:49:4a:
                    77:07:d0:5a:40:7b:9e:28:32:91:02:72:c5:67:bb:
                    a5:9d:bd:4c:f1:84:f4:e9:cc:42:41:86:83:a4:01:
                    ea:6e:67:ab:26:ad:18:f1:d9:52:61:66:de:14:84:
                    65:a7:30:97:ac:42:00:4b:a9:68:33:a2:e9:36:17:
                    fc:52:e0:7c:29:ed:a0:f8:6f:57:81:93:98:c7:16:
                    25:28:2d:4d:3e:5a:b7:3b:65:e0:70:95:68:1f:56:
                    22:0a:d6:32:55:9a:17:a7:7c:6b:5d:d3:76:b0:a1:
                    41:ac:28:72:95:c8:ae:4c:03:90:98:6f:23:35:cc:
                    56:95:25:49:04:17:d0:bd:16:8a:5f:3c:d8:52:7a:
                    40:2b:20:20:4f:df:75:a7:04:5a:b8:23:21:91:6d:
                    cc:d7:1a:96:ca:95:9f:ad:6a:e7:4e:d5:c1:36:60:
                    1d:bd:3e:9f:62:b5:7a:ec:aa:00:32:41:5e:11:d1:
                    85:d5:93:0e:a1:ac:66:d2:b6:b4:5e:71:98:17:58:
                    1d:88:28:47:7a:08:7e:8d:01:a7:78:5e:03:32:fc:
                    b8:65
                Exponent: 65537 (0x10001)
        X509v3 extensions:
            X509v3 Key Usage: 
                Digital Signature, Key Encipherment
            X509v3 Basic Constraints: 
                CA:FALSE
            Netscape Cert Type: 
                SSL Server
            Netscape Comment: 
                OpenSSL Generated Server Certificate
            X509v3 Subject Key Identifier: 
                CF:46:B9:57:0B:A7:82:A7:8D:05:70:AF:6B:C6:B7:E1:7D:55:F8:8F
            X509v3 Authority Key Identifier: 
                keyid:F4:A7:C0:CC:91:46:AF:64:F3:91:F2:27:F8:C8:B2:6F:8A:87:32:73
                DirName:/C=DE/ST=Hessen/O=privacyidea/CN=CA001
                serial:FB:C8:EB:AC:83:CD:12:07

            X509v3 Extended Key Usage: 
                TLS Web Server Authentication
    Signature Algorithm: sha1WithRSAEncryption
         b2:cb:80:c7:cc:17:d1:ef:23:44:d5:f2:f2:99:bc:93:57:ef:
         b1:dc:a5:e6:3d:2f:f8:a4:a8:1c:e7:d7:16:12:61:4c:6d:81:
         32:c0:38:e6:a3:3e:9c:6d:07:56:19:00:e6:1d:d2:e3:ee:ff:
         b7:89:e7:4f:f4:62:86:71:e8:d6:83:e2:ab:76:2e:fd:33:3c:
         c4:01:72:3e:fe:6a:ce:3f:d4:30:68:1e:0c:60:e9:79:5e:8c:
         b9:5a:40:c0:fa:05:43:61:ca:11:26:41:69:b9:60:88:e7:fb:
         4d:b2:34:82:92:a1:a2:26:59:c5:e6:d1:6d:ff:be:3a:61:3c:
         2c:0a:95:ad:71:de:d9:c6:14:75:47:91:cc:d5:29:91:7e:24:
         b5:fb:7e:3a:fb:2c:a4:e4:ea:be:22:d9:81:1f:e0:7f:95:30:
         60:a9:11:0f:b7:8e:ef:91:e4:b1:a4:19:0e:61:cf:e0:76:4a:
         ea:e2:b6:ab:8c:09:a4:19:02:df:7e:c0:52:cc:17:7b:cb:06:
         76:b5:0d:d4:43:1d:0a:27:71:cf:62:ea:31:3c:ec:2e:3a:d7:
         73:7f:b7:d0:2a:1e:36:12:54:8a:f1:dd:75:4d:3a:12:c5:73:
         d4:c6:b7:52:b5:45:0f:10:c1:a3:58:43:2a:41:4f:7d:e4:ca:
         ef:29:b0:68
-----BEGIN CERTIFICATE-----
MIIEFjCCAv6gAwIBAgIEEAABCDANBgkqhkiG9w0BAQUFADBEMQswCQYDVQQGEwJE
RTEPMA0GA1UECAwGSGVzc2VuMRQwEgYDVQQKDAtwcml2YWN5aWRlYTEOMAwGA1UE
AwwFQ0EwMDEwHhcNMTYwNDI2MTUwMzIxWhcNMTcwNDI2MTUwMzIxWjBEMQ4wDAYD
VQQLEwVsb2NhbDEOMAwGA1UEAxMFY29ybnkxIjAgBgkqhkiG9w0BCQEWE2Nvcm55
QGNvcm5lbGludXguZGUwggEiMA0GCSqGSIb3DQEBAQUAA4IBDwAwggEKAoIBAQCw
UL+Hi1VlOQpLBbIswvDrsTj9jHfV9jyf6QkanUIB0F1porOVtclY/RdJSncH0FpA
e54oMpECcsVnu6WdvUzxhPTpzEJBhoOkAepuZ6smrRjx2VJhZt4UhGWnMJesQgBL
qWgzouk2F/xS4Hwp7aD4b1eBk5jHFiUoLU0+Wrc7ZeBwlWgfViIK1jJVmhenfGtd
03awoUGsKHKVyK5MA5CYbyM1zFaVJUkEF9C9FopfPNhSekArICBP33WnBFq4IyGR
bczXGpbKlZ+taudO1cE2YB29Pp9itXrsqgAyQV4R0YXVkw6hrGbStrRecZgXWB2I
KEd6CH6NAad4XgMy/LhlAgMBAAGjggEOMIIBCjALBgNVHQ8EBAMCBaAwCQYDVR0T
BAIwADARBglghkgBhvhCAQEEBAMCBkAwMwYJYIZIAYb4QgENBCYWJE9wZW5TU0wg
R2VuZXJhdGVkIFNlcnZlciBDZXJ0aWZpY2F0ZTAdBgNVHQ4EFgQUz0a5VwungqeN
BXCva8a34X1V+I8wdAYDVR0jBG0wa4AU9KfAzJFGr2TzkfIn+Miyb4qHMnOhSKRG
MEQxCzAJBgNVBAYTAkRFMQ8wDQYDVQQIDAZIZXNzZW4xFDASBgNVBAoMC3ByaXZh
Y3lpZGVhMQ4wDAYDVQQDDAVDQTAwMYIJAPvI66yDzRIHMBMGA1UdJQQMMAoGCCsG
AQUFBwMBMA0GCSqGSIb3DQEBBQUAA4IBAQCyy4DHzBfR7yNE1fLymbyTV++x3KXm
PS/4pKgc59cWEmFMbYEywDjmoz6cbQdWGQDmHdLj7v+3iedP9GKGcejWg+Krdi79
MzzEAXI+/mrOP9QwaB4MYOl5Xoy5WkDA+gVDYcoRJkFpuWCI5/tNsjSCkqGiJlnF
5tFt/746YTwsCpWtcd7ZxhR1R5HM1SmRfiS1+346+yyk5Oq+ItmBH+B/lTBgqREP
t47vkeSxpBkOYc/gdkrq4rarjAmkGQLffsBSzBd7ywZ2tQ3UQx0KJ3HPYuoxPOwu
Otdzf7fQKh42ElSK8d11TToSxXPUxrdStUUPEMGjWEMqQU995MrvKbBo
-----END CERTIFICATE-----
