Certificate:
    Data:
        Version: 3 (0x2)
        Serial Number: 268435664 (0x100000d0)
    Signature Algorithm: sha256WithRSAEncryption
        Issuer: C=DE, ST=Hessen, O=privacyidea, CN=CA001
        Validity
            Not Before: Oct 22 06:41:28 2018 GMT
            Not After : Oct 22 06:41:28 2019 GMT
        Subject: C=DE, ST=Hessen, O=privacyidea, CN=requester.localdomain
        Subject Public Key Info:
            Public Key Algorithm: rsaEncryption
                Public-Key: (2048 bit)
                Modulus:
                    00:cd:be:14:4f:fa:ce:01:3f:42:22:1b:1d:9c:af:
                    dd:92:d2:7f:db:6c:b7:3e:39:43:43:6b:13:03:f1:
                    05:f4:07:74:bc:76:69:28:0b:af:19:8e:d7:fc:e3:
                    cd:c6:58:f2:ca:7f:08:6d:53:fc:07:02:44:24:c6:
                    b4:34:4c:8c:04:fe:33:0e:40:e2:20:ba:02:73:5a:
                    f7:f5:4f:63:6e:cc:c6:b6:df:54:1d:37:39:7d:51:
                    36:26:5f:bd:dc:3f:a8:8b:6b:a2:ae:b6:9d:d6:21:
                    e7:df:41:b8:7a:28:2a:68:48:ca:a8:2d:ed:e1:e9:
                    46:5e:5a:72:6d:b4:84:38:87:91:fd:94:11:0b:28:
                    84:c6:c2:2f:2a:fb:01:f9:36:7a:09:75:d1:33:88:
                    3c:73:41:5b:c8:bf:94:89:70:a1:f0:c0:b9:2e:50:
                    53:1e:b1:17:64:69:f4:2d:81:e0:a9:0d:0e:32:e9:
                    ba:55:8a:85:f1:1b:6f:49:79:b4:7f:88:c3:0d:3e:
                    54:88:9b:3d:1f:38:8c:04:f3:ee:6a:63:2b:f5:c6:
                    db:b4:83:aa:c4:78:41:3a:7d:4b:e1:c8:3e:71:ca:
                    1b:61:59:ea:c6:c4:ca:32:5e:c9:e9:bf:12:29:e6:
                    c6:c3:63:fe:a0:55:da:7a:f1:60:98:4d:26:ed:fa:
                    70:2d
                Exponent: 65537 (0x10001)
        X509v3 extensions:
            X509v3 Key Usage: 
                Digital Signature, Key Encipherment
            X509v3 Basic Constraints: 
                CA:FALSE
            Netscape Cert Type: 
                SSL Server
            Netscape Comment: 
                OpenSSL Generated Server Certificate
            X509v3 Subject Key Identifier: 
                53:3F:ED:5D:09:07:B3:65:7B:AB:45:C9:24:5B:09:77:80:0A:96:ED
            X509v3 Authority Key Identifier: 
                keyid:F4:A7:C0:CC:91:46:AF:64:F3:91:F2:27:F8:C8:B2:6F:8A:87:32:73
                DirName:/C=DE/ST=Hessen/O=privacyidea/CN=CA001
                serial:FB:C8:EB:AC:83:CD:12:07

            X509v3 Extended Key Usage: 
                TLS Web Server Authentication
    Signature Algorithm: sha256WithRSAEncryption
         14:af:2c:d9:4a:16:63:79:fb:05:59:eb:57:82:bf:45:b1:06:
         d4:c7:7c:fa:4d:15:02:e4:39:64:e4:65:f6:61:d7:90:4d:bf:
         c6:e5:ac:40:4e:de:04:61:89:f1:45:b1:27:d1:ab:10:49:e5:
         8b:aa:9b:12:b1:3e:78:0c:30:56:ae:a7:40:b9:7c:75:88:8e:
         5d:a2:dd:5a:b0:17:1d:71:7b:63:dd:6a:d4:a2:17:0a:f9:a3:
         4b:3a:6c:b7:80:c4:6a:10:79:22:c7:15:c7:d2:82:64:93:41:
         a9:e3:13:be:2a:c7:74:e6:63:89:e5:06:c9:a6:8e:cf:80:82:
         fc:50:66:31:2f:6f:f8:48:53:10:4e:1d:ae:97:18:8f:ab:f4:
         1c:5d:7b:b5:44:b7:3a:a4:e2:e6:25:5f:68:71:4f:82:68:94:
         01:23:32:0d:68:70:2d:60:f5:c5:92:c7:48:f1:e0:46:77:74:
         a9:21:a3:56:35:f8:bf:cc:e7:df:54:15:35:4b:8f:73:b7:b8:
         f7:02:df:d8:44:51:aa:b8:70:87:7b:6e:64:d6:2c:14:73:c7:
         76:8c:2c:10:f0:a2:7b:7d:f9:90:03:a5:c4:48:52:57:4e:62:
         f8:90:36:ad:6f:af:2a:40:d1:58:6b:64:0a:4f:83:48:53:40:
         fb:c2:9e:da
-----BEGIN CERTIFICATE-----
MIIEJjCCAw6gAwIBAgIEEAAA0DANBgkqhkiG9w0BAQsFADBEMQswCQYDVQQGEwJE
RTEPMA0GA1UECAwGSGVzc2VuMRQwEgYDVQQKDAtwcml2YWN5aWRlYTEOMAwGA1UE
AwwFQ0EwMDEwHhcNMTgxMDIyMDY0MTI4WhcNMTkxMDIyMDY0MTI4WjBUMQswCQYD
VQQGEwJERTEPMA0GA1UECAwGSGVzc2VuMRQwEgYDVQQKDAtwcml2YWN5aWRlYTEe
MBwGA1UEAwwVcmVxdWVzdGVyLmxvY2FsZG9tYWluMIIBIjANBgkqhkiG9w0BAQEF
AAOCAQ8AMIIBCgKCAQEAzb4UT/rOAT9CIhsdnK/dktJ/22y3PjlDQ2sTA/EF9Ad0
vHZpKAuvGY7X/OPNxljyyn8IbVP8BwJEJMa0NEyMBP4zDkDiILoCc1r39U9jbszG
tt9UHTc5fVE2Jl+93D+oi2uirrad1iHn30G4eigqaEjKqC3t4elGXlpybbSEOIeR
/ZQRCyiExsIvKvsB+TZ6CXXRM4g8c0FbyL+UiXCh8MC5LlBTHrEXZGn0LYHgqQ0O
Mum6VYqF8RtvSXm0f4jDDT5UiJs9HziMBPPuamMr9cbbtIOqxHhBOn1L4cg+ccob
YVnqxsTKMl7J6b8SKebGw2P+oFXaevFgmE0m7fpwLQIDAQABo4IBDjCCAQowCwYD
VR0PBAQDAgWgMAkGA1UdEwQCMAAwEQYJYIZIAYb4QgEBBAQDAgZAMDMGCWCGSAGG
+EIBDQQmFiRPcGVuU1NMIEdlbmVyYXRlZCBTZXJ2ZXIgQ2VydGlmaWNhdGUwHQYD
VR0OBBYEFFM/7V0JB7Nle6tFySRbCXeACpbtMHQGA1UdIwRtMGuAFPSnwMyRRq9k
85HyJ/jIsm+KhzJzoUikRjBEMQswCQYDVQQGEwJERTEPMA0GA1UECAwGSGVzc2Vu
MRQwEgYDVQQKDAtwcml2YWN5aWRlYTEOMAwGA1UEAwwFQ0EwMDGCCQD7yOusg80S
BzATBgNVHSUEDDAKBggrBgEFBQcDATANBgkqhkiG9w0BAQsFAAOCAQEAFK8s2UoW
Y3n7BVnrV4K/RbEG1Md8+k0VAuQ5ZORl9mHXkE2/xuWsQE7eBGGJ8UWxJ9GrEEnl
i6qbErE+eAwwVq6nQLl8dYiOXaLdWrAXHXF7Y91q1KIXCvmjSzpst4DEahB5IscV
x9KCZJNBqeMTvirHdOZjieUGyaaOz4CC/FBmMS9v+EhTEE4drpcYj6v0HF17tUS3
OqTi5iVfaHFPgmiUASMyDWhwLWD1xZLHSPHgRnd0qSGjVjX4v8zn31QVNUuPc7e4
9wLf2ERRqrhwh3tuZNYsFHPHdowsEPCie335kAOlxEhSV05i+JA2rW+vKkDRWGtk
Ck+DSFNA+8Ke2g==
-----END CERTIFICATE-----
