Certificate:
    Data:
        Version: 3 (0x2)
        Serial Number: 268435711 (0x100000ff)
    Signature Algorithm: sha1WithRSAEncryption
        Issuer: C=DE, ST=Hessen, O=privacyidea, CN=CA001
        Validity
            Not Before: Feb 23 15:44:23 2017 GMT
            Not After : Feb 23 15:44:23 2018 GMT
        Subject: CN=Steve Test/emailAddress=steve@openssl.org
        Subject Public Key Info:
            Public Key Algorithm: rsaEncryption
                Public-Key: (2048 bit)
                Modulus:
                    00:d2:81:89:20:51:48:0f:73:f4:11:32:24:d5:1f:
                    1c:fd:5c:f5:b6:e6:c5:f0:52:81:dc:d2:af:66:4a:
                    7c:93:31:61:5c:af:d1:6d:06:70:03:60:7c:72:0c:
                    88:dd:49:cd:9e:02:6c:d2:5a:d7:53:0f:f3:da:be:
                    69:64:b5:0f:0c:00:e3:b3:50:47:a3:b3:9b:ba:13:
                    50:d6:58:5a:4b:ab:39:e0:11:ca:0a:27:67:03:78:
                    22:66:6d:92:1e:1b:5c:49:ae:e6:6b:d1:8e:3b:9d:
                    06:d3:c6:ac:4d:53:43:10:ab:e8:96:c1:87:82:97:
                    99:8f:20:d3:99:12:37:31:84:e1:8a:ff:29:03:5f:
                    22:90:3e:7f:9b:e0:20:c1:ad:dc:ae:4c:39:1a:31:
                    96:17:02:8c:b2:d9:b4:0d:20:12:9b:7d:86:54:fd:
                    33:fd:c1:2a:62:46:f8:60:96:cf:6e:01:6f:22:df:
                    13:47:e7:97:ec:05:72:23:a3:62:f8:fa:ef:ac:9c:
                    72:f0:37:cb:2f:37:cf:90:a8:27:51:86:c6:d7:78:
                    08:8f:7e:25:a2:15:70:a2:fb:1c:b6:15:5e:a0:97:
                    8b:81:4c:09:28:8a:27:3b:94:bc:71:db:5b:71:37:
                    9a:2b:16:e0:6f:b5:c9:f5:4b:4f:20:ba:65:cf:af:
                    ad:ad
                Exponent: 65537 (0x10001)
        X509v3 extensions:
            X509v3 Key Usage: 
                Digital Signature, Key Encipherment
            X509v3 Basic Constraints: 
                CA:FALSE
            Netscape Cert Type: 
                SSL Server
            Netscape Comment: 
                OpenSSL Generated Server Certificate
            X509v3 Subject Key Identifier: 
                E5:25:6D:3E:AF:0D:DD:3F:4C:F2:45:19:39:D5:14:DB:7E:9C:C0:AD
            X509v3 Authority Key Identifier: 
                keyid:F4:A7:C0:CC:91:46:AF:64:F3:91:F2:27:F8:C8:B2:6F:8A:87:32:73
                DirName:/C=DE/ST=Hessen/O=privacyidea/CN=CA001
                serial:FB:C8:EB:AC:83:CD:12:07

            X509v3 Extended Key Usage: 
                TLS Web Server Authentication
    Signature Algorithm: sha1WithRSAEncryption
         0f:0a:50:1d:b4:b7:86:d3:fd:6c:9e:c9:b0:30:f7:11:ff:9b:
         6b:fe:5c:f0:62:35:5e:53:53:ce:7b:1a:3e:d2:d8:25:a1:ad:
         fd:2e:ed:91:16:44:c6:0f:b4:f1:c8:81:fb:32:12:02:8e:2c:
         b8:c0:26:8f:77:7d:4a:f4:48:16:20:09:b9:98:8b:e0:c7:6e:
         86:4a:5a:7c:54:6f:4f:6f:85:de:a3:57:e6:59:76:4b:e6:99:
         cd:b9:4f:95:df:5b:ed:91:5d:e4:f0:8f:e5:80:9d:de:43:b0:
         a7:42:a9:b5:8b:46:13:74:c8:57:f1:1f:76:a1:e1:7e:7a:43:
         78:5e:d3:7f:18:79:9d:6e:61:b2:37:02:7a:e4:a6:62:12:27:
         1e:aa:8d:8d:7f:ad:dc:1b:6a:19:e8:7f:f2:07:f9:d0:b0:ff:
         e1:27:33:93:fc:6a:4a:54:dd:49:0a:c3:73:aa:6d:46:8b:f7:
         3c:41:d5:49:a8:ef:0f:45:b7:9f:ad:f7:ce:be:77:27:49:24:
         7b:8a:58:0c:a5:e0:23:b2:92:a7:f9:90:c6:45:4e:6a:85:2d:
         a5:07:2a:d8:82:32:b0:73:13:73:90:85:da:14:c5:70:6f:b6:
         7e:3e:fe:bc:c1:d8:01:a1:d8:7b:87:b4:2f:6b:17:5e:f2:2b:
         46:b6:8d:64
-----BEGIN CERTIFICATE-----
MIIECTCCAvGgAwIBAgIEEAAA/zANBgkqhkiG9w0BAQUFADBEMQswCQYDVQQGEwJE
RTEPMA0GA1UECAwGSGVzc2VuMRQwEgYDVQQKDAtwcml2YWN5aWRlYTEOMAwGA1UE
AwwFQ0EwMDEwHhcNMTcwMjIzMTU0NDIzWhcNMTgwMjIzMTU0NDIzWjA3MRMwEQYD
VQQDDApTdGV2ZSBUZXN0MSAwHgYJKoZIhvcNAQkBFhFzdGV2ZUBvcGVuc3NsLm9y
ZzCCASIwDQYJKoZIhvcNAQEBBQADggEPADCCAQoCggEBANKBiSBRSA9z9BEyJNUf
HP1c9bbmxfBSgdzSr2ZKfJMxYVyv0W0GcANgfHIMiN1JzZ4CbNJa11MP89q+aWS1
DwwA47NQR6Ozm7oTUNZYWkurOeARygonZwN4ImZtkh4bXEmu5mvRjjudBtPGrE1T
QxCr6JbBh4KXmY8g05kSNzGE4Yr/KQNfIpA+f5vgIMGt3K5MORoxlhcCjLLZtA0g
Ept9hlT9M/3BKmJG+GCWz24BbyLfE0fnl+wFciOjYvj676yccvA3yy83z5CoJ1GG
xtd4CI9+JaIVcKL7HLYVXqCXi4FMCSiKJzuUvHHbW3E3misW4G+1yfVLTyC6Zc+v
ra0CAwEAAaOCAQ4wggEKMAsGA1UdDwQEAwIFoDAJBgNVHRMEAjAAMBEGCWCGSAGG
+EIBAQQEAwIGQDAzBglghkgBhvhCAQ0EJhYkT3BlblNTTCBHZW5lcmF0ZWQgU2Vy
dmVyIENlcnRpZmljYXRlMB0GA1UdDgQWBBTlJW0+rw3dP0zyRRk51RTbfpzArTB0
BgNVHSMEbTBrgBT0p8DMkUavZPOR8if4yLJviocyc6FIpEYwRDELMAkGA1UEBhMC
REUxDzANBgNVBAgMBkhlc3NlbjEUMBIGA1UECgwLcHJpdmFjeWlkZWExDjAMBgNV
BAMMBUNBMDAxggkA+8jrrIPNEgcwEwYDVR0lBAwwCgYIKwYBBQUHAwEwDQYJKoZI
hvcNAQEFBQADggEBAA8KUB20t4bT/WyeybAw9xH/m2v+XPBiNV5TU857Gj7S2CWh
rf0u7ZEWRMYPtPHIgfsyEgKOLLjAJo93fUr0SBYgCbmYi+DHboZKWnxUb09vhd6j
V+ZZdkvmmc25T5XfW+2RXeTwj+WAnd5DsKdCqbWLRhN0yFfxH3ah4X56Q3he038Y
eZ1uYbI3AnrkpmISJx6qjY1/rdwbahnof/IH+dCw/+EnM5P8akpU3UkKw3OqbUaL
9zxB1Umo7w9Ft5+t986+dydJJHuKWAyl4COykqf5kMZFTmqFLaUHKtiCMrBzE3OQ
hdoUxXBvtn4+/rzB2AGh2HuHtC9rF17yK0a2jWQ=
-----END CERTIFICATE-----
