Certificate:
    Data:
        Version: 3 (0x2)
        Serial Number: 268435673 (0x100000d9)
    Signature Algorithm: sha256WithRSAEncryption
        Issuer: C=DE, ST=Hessen, O=privacyidea, CN=CA001
        Validity
            Not Before: Aug 30 15:53:46 2018 GMT
            Not After : Sep 18 15:53:46 2020 GMT
        Subject: CN=Steve Test/emailAddress=steve@openssl.org
        Subject Public Key Info:
            Public Key Algorithm: rsaEncryption
                Public-Key: (2048 bit)
                Modulus:
                    00:d2:81:89:20:51:48:0f:73:f4:11:32:24:d5:1f:
                    1c:fd:5c:f5:b6:e6:c5:f0:52:81:dc:d2:af:66:4a:
                    7c:93:31:61:5c:af:d1:6d:06:70:03:60:7c:72:0c:
                    88:dd:49:cd:9e:02:6c:d2:5a:d7:53:0f:f3:da:be:
                    69:64:b5:0f:0c:00:e3:b3:50:47:a3:b3:9b:ba:13:
                    50:d6:58:5a:4b:ab:39:e0:11:ca:0a:27:67:03:78:
                    22:66:6d:92:1e:1b:5c:49:ae:e6:6b:d1:8e:3b:9d:
                    06:d3:c6:ac:4d:53:43:10:ab:e8:96:c1:87:82:97:
                    99:8f:20:d3:99:12:37:31:84:e1:8a:ff:29:03:5f:
                    22:90:3e:7f:9b:e0:20:c1:ad:dc:ae:4c:39:1a:31:
                    96:17:02:8c:b2:d9:b4:0d:20:12:9b:7d:86:54:fd:
                    33:fd:c1:2a:62:46:f8:60:96:cf:6e:01:6f:22:df:
                    13:47:e7:97:ec:05:72:23:a3:62:f8:fa:ef:ac:9c:
                    72:f0:37:cb:2f:37:cf:90:a8:27:51:86:c6:d7:78:
                    08:8f:7e:25:a2:15:70:a2:fb:1c:b6:15:5e:a0:97:
                    8b:81:4c:09:28:8a:27:3b:94:bc:71:db:5b:71:37:
                    9a:2b:16:e0:6f:b5:c9:f5:4b:4f:20:ba:65:cf:af:
                    ad:ad
                Exponent: 65537 (0x10001)
        X509v3 extensions:
            X509v3 Key Usage: 
                Digital Signature, Key Encipherment
            X509v3 Basic Constraints: 
                CA:FALSE
            Netscape Cert Type: 
                SSL Server
            Netscape Comment: 
                OpenSSL Generated Server Certificate
            X509v3 Subject Key Identifier: 
                E5:25:6D:3E:AF:0D:DD:3F:4C:F2:45:19:39:D5:14:DB:7E:9C:C0:AD
            X509v3 Authority Key Identifier: 
                keyid:F4:A7:C0:CC:91:46:AF:64:F3:91:F2:27:F8:C8:B2:6F:8A:87:32:73
                DirName:/C=DE/ST=Hessen/O=privacyidea/CN=CA001
                serial:FB:C8:EB:AC:83:CD:12:07

            X509v3 Extended Key Usage: 
                TLS Web Server Authentication
    Signature Algorithm: sha256WithRSAEncryption
         37:ab:3d:0e:a3:bd:ab:b6:42:3d:8c:c9:fe:4b:26:31:7f:8c:
         af:55:13:44:d7:5c:8e:d4:62:61:a4:78:59:f4:32:df:bc:7c:
         28:1b:32:7c:b1:3d:1f:7c:6d:d3:d0:2f:d8:2a:e0:76:c6:1a:
         7b:94:4d:25:0b:70:47:11:a4:bc:2b:01:fe:5c:30:0f:8f:bb:
         e4:76:3b:3d:1b:f9:ba:06:34:36:a7:43:c4:a1:2f:7e:6e:79:
         26:7d:7d:05:db:ba:34:a8:41:ec:07:2f:d9:77:e0:2d:c5:ec:
         6d:37:d0:21:0b:ef:b3:ef:1c:24:3b:9c:3f:96:ce:26:a5:f1:
         f6:93:d6:90:e2:c5:a0:60:8c:c7:83:3e:87:82:75:96:f4:4e:
         99:6e:25:7a:b5:ad:8e:5f:6a:fc:ba:d1:8f:d9:eb:84:b5:93:
         eb:99:be:13:dc:fb:4c:16:b1:a1:c5:8c:3c:6b:61:9b:2e:bb:
         52:e1:45:ff:6b:cd:4c:07:8b:c8:79:62:5e:93:cb:14:7a:af:
         2c:da:fa:fd:1a:13:4e:01:62:2a:79:40:7f:2b:0c:19:a5:ee:
         26:f4:71:18:f7:52:0b:95:70:b3:56:ac:e0:ce:28:12:e4:6e:
         d1:c6:e6:d2:ca:8d:44:c4:cc:04:97:c8:31:2d:a0:d6:0a:e8:
         0b:e3:54:86
-----BEGIN CERTIFICATE-----
MIIECTCCAvGgAwIBAgIEEAAA2TANBgkqhkiG9w0BAQsFADBEMQswCQYDVQQGEwJE
RTEPMA0GA1UECAwGSGVzc2VuMRQwEgYDVQQKDAtwcml2YWN5aWRlYTEOMAwGA1UE
AwwFQ0EwMDEwHhcNMTgwODMwMTU1MzQ2WhcNMjAwOTE4MTU1MzQ2WjA3MRMwEQYD
VQQDDApTdGV2ZSBUZXN0MSAwHgYJKoZIhvcNAQkBFhFzdGV2ZUBvcGVuc3NsLm9y
ZzCCASIwDQYJKoZIhvcNAQEBBQADggEPADCCAQoCggEBANKBiSBRSA9z9BEyJNUf
HP1c9bbmxfBSgdzSr2ZKfJMxYVyv0W0GcANgfHIMiN1JzZ4CbNJa11MP89q+aWS1
DwwA47NQR6Ozm7oTUNZYWkurOeARygonZwN4ImZtkh4bXEmu5mvRjjudBtPGrE1T
QxCr6JbBh4KXmY8g05kSNzGE4Yr/KQNfIpA+f5vgIMGt3K5MORoxlhcCjLLZtA0g
Ept9hlT9M/3BKmJG+GCWz24BbyLfE0fnl+wFciOjYvj676yccvA3yy83z5CoJ1GG
xtd4CI9+JaIVcKL7HLYVXqCXi4FMCSiKJzuUvHHbW3E3misW4G+1yfVLTyC6Zc+v
ra0CAwEAAaOCAQ4wggEKMAsGA1UdDwQEAwIFoDAJBgNVHRMEAjAAMBEGCWCGSAGG
+EIBAQQEAwIGQDAzBglghkgBhvhCAQ0EJhYkT3BlblNTTCBHZW5lcmF0ZWQgU2Vy
dmVyIENlcnRpZmljYXRlMB0GA1UdDgQWBBTlJW0+rw3dP0zyRRk51RTbfpzArTB0
BgNVHSMEbTBrgBT0p8DMkUavZPOR8if4yLJviocyc6FIpEYwRDELMAkGA1UEBhMC
REUxDzANBgNVBAgMBkhlc3NlbjEUMBIGA1UECgwLcHJpdmFjeWlkZWExDjAMBgNV
BAMMBUNBMDAxggkA+8jrrIPNEgcwEwYDVR0lBAwwCgYIKwYBBQUHAwEwDQYJKoZI
hvcNAQELBQADggEBADerPQ6jvau2Qj2Myf5LJjF/jK9VE0TXXI7UYmGkeFn0Mt+8
fCgbMnyxPR98bdPQL9gq4HbGGnuUTSULcEcRpLwrAf5cMA+Pu+R2Oz0b+boGNDan
Q8ShL35ueSZ9fQXbujSoQewHL9l34C3F7G030CEL77PvHCQ7nD+Wzial8faT1pDi
xaBgjMeDPoeCdZb0TpluJXq1rY5favy60Y/Z64S1k+uZvhPc+0wWsaHFjDxrYZsu
u1LhRf9rzUwHi8h5Yl6TyxR6ryza+v0aE04BYip5QH8rDBml7ib0cRj3UguVcLNW
rODOKBLkbtHG5tLKjUTEzASXyDEtoNYK6AvjVIY=
-----END CERTIFICATE-----
