Certificate:
    Data:
        Version: 3 (0x2)
        Serial Number: 268435694 (0x100000ee)
    Signature Algorithm: sha256WithRSAEncryption
        Issuer: C=DE, ST=Hessen, O=privacyidea, CN=CA001
        Validity
            Not Before: Apr 27 16:18:44 2017 GMT
            Not After : Apr 27 16:18:44 2018 GMT
        Subject: C=DE, ST=Hessen, O=privacyidea, CN=requester.localdomain
        Subject Public Key Info:
            Public Key Algorithm: rsaEncryption
                Public-Key: (2048 bit)
                Modulus:
                    00:cd:be:14:4f:fa:ce:01:3f:42:22:1b:1d:9c:af:
                    dd:92:d2:7f:db:6c:b7:3e:39:43:43:6b:13:03:f1:
                    05:f4:07:74:bc:76:69:28:0b:af:19:8e:d7:fc:e3:
                    cd:c6:58:f2:ca:7f:08:6d:53:fc:07:02:44:24:c6:
                    b4:34:4c:8c:04:fe:33:0e:40:e2:20:ba:02:73:5a:
                    f7:f5:4f:63:6e:cc:c6:b6:df:54:1d:37:39:7d:51:
                    36:26:5f:bd:dc:3f:a8:8b:6b:a2:ae:b6:9d:d6:21:
                    e7:df:41:b8:7a:28:2a:68:48:ca:a8:2d:ed:e1:e9:
                    46:5e:5a:72:6d:b4:84:38:87:91:fd:94:11:0b:28:
                    84:c6:c2:2f:2a:fb:01:f9:36:7a:09:75:d1:33:88:
                    3c:73:41:5b:c8:bf:94:89:70:a1:f0:c0:b9:2e:50:
                    53:1e:b1:17:64:69:f4:2d:81:e0:a9:0d:0e:32:e9:
                    ba:55:8a:85:f1:1b:6f:49:79:b4:7f:88:c3:0d:3e:
                    54:88:9b:3d:1f:38:8c:04:f3:ee:6a:63:2b:f5:c6:
                    db:b4:83:aa:c4:78:41:3a:7d:4b:e1:c8:3e:71:ca:
                    1b:61:59:ea:c6:c4:ca:32:5e:c9:e9:bf:12:29:e6:
                    c6:c3:63:fe:a0:55:da:7a:f1:60:98:4d:26:ed:fa:
                    70:2d
                Exponent: 65537 (0x10001)
        X509v3 extensions:
            X509v3 Key Usage: 
                Digital Signature, Key Encipherment
            X509v3 Basic Constraints: 
                CA:FALSE
            Netscape Cert Type: 
                SSL Server
            Netscape Comment: 
                OpenSSL Generated Server Certificate
            X509v3 Subject Key Identifier: 
                53:3F:ED:5D:09:07:B3:65:7B:AB:45:C9:24:5B:09:77:80:0A:96:ED
            X509v3 Authority Key Identifier: 
                keyid:F4:A7:C0:CC:91:46:AF:64:F3:91:F2:27:F8:C8:B2:6F:8A:87:32:73
                DirName:/C=DE/ST=Hessen/O=privacyidea/CN=CA001
                serial:FB:C8:EB:AC:83:CD:12:07

            X509v3 Extended Key Usage: 
                TLS Web Server Authentication
    Signature Algorithm: sha256WithRSAEncryption
         86:5b:9b:ec:26:18:71:61:99:1c:04:15:4e:da:d4:67:87:87:
         90:19:28:6e:13:11:6b:bf:63:82:09:2c:df:7d:a4:c9:b0:88:
         9f:a9:27:ee:e4:86:5a:11:19:1d:f2:62:3e:69:9c:58:cd:ca:
         19:50:c2:de:44:8a:1c:bc:e3:41:eb:79:68:68:50:44:be:fd:
         59:4a:0b:10:68:55:e4:bb:58:b3:c8:49:44:77:a7:b2:6b:a4:
         c9:eb:af:c2:18:76:4c:38:70:5b:c0:64:48:50:9c:a3:40:23:
         ed:d5:7c:4a:a1:0a:a2:55:3c:70:28:b2:6c:d4:27:ff:6a:e1:
         94:d5:33:29:b7:af:82:c0:14:ce:df:0d:77:23:56:35:56:11:
         c7:c2:75:98:35:21:4b:d5:76:e2:63:38:0c:70:a5:08:4a:e5:
         c8:76:d0:aa:a1:30:db:23:81:d6:d4:9f:62:70:01:43:32:e6:
         a3:a3:73:4b:40:fa:4d:51:46:25:b1:2b:f0:fa:ed:93:7b:fa:
         c8:34:37:06:40:a5:e4:ad:ff:d3:3c:45:6b:0b:2b:b0:9d:00:
         41:cb:c8:25:40:01:07:ab:97:22:d8:0a:12:c2:45:a8:0b:49:
         a0:b8:d6:d9:1d:a4:79:e1:50:8e:87:27:12:f9:79:37:73:e9:
         22:9e:2b:31
-----BEGIN CERTIFICATE-----
MIIEJjCCAw6gAwIBAgIEEAAA7jANBgkqhkiG9w0BAQsFADBEMQswCQYDVQQGEwJE
RTEPMA0GA1UECAwGSGVzc2VuMRQwEgYDVQQKDAtwcml2YWN5aWRlYTEOMAwGA1UE
AwwFQ0EwMDEwHhcNMTcwNDI3MTYxODQ0WhcNMTgwNDI3MTYxODQ0WjBUMQswCQYD
VQQGEwJERTEPMA0GA1UECAwGSGVzc2VuMRQwEgYDVQQKDAtwcml2YWN5aWRlYTEe
MBwGA1UEAwwVcmVxdWVzdGVyLmxvY2FsZG9tYWluMIIBIjANBgkqhkiG9w0BAQEF
AAOCAQ8AMIIBCgKCAQEAzb4UT/rOAT9CIhsdnK/dktJ/22y3PjlDQ2sTA/EF9Ad0
vHZpKAuvGY7X/OPNxljyyn8IbVP8BwJEJMa0NEyMBP4zDkDiILoCc1r39U9jbszG
tt9UHTc5fVE2Jl+93D+oi2uirrad1iHn30G4eigqaEjKqC3t4elGXlpybbSEOIeR
/ZQRCyiExsIvKvsB+TZ6CXXRM4g8c0FbyL+UiXCh8MC5LlBTHrEXZGn0LYHgqQ0O
Mum6VYqF8RtvSXm0f4jDDT5UiJs9HziMBPPuamMr9cbbtIOqxHhBOn1L4cg+ccob
YVnqxsTKMl7J6b8SKebGw2P+oFXaevFgmE0m7fpwLQIDAQABo4IBDjCCAQowCwYD
VR0PBAQDAgWgMAkGA1UdEwQCMAAwEQYJYIZIAYb4QgEBBAQDAgZAMDMGCWCGSAGG
+EIBDQQmFiRPcGVuU1NMIEdlbmVyYXRlZCBTZXJ2ZXIgQ2VydGlmaWNhdGUwHQYD
VR0OBBYEFFM/7V0JB7Nle6tFySRbCXeACpbtMHQGA1UdIwRtMGuAFPSnwMyRRq9k
85HyJ/jIsm+KhzJzoUikRjBEMQswCQYDVQQGEwJERTEPMA0GA1UECAwGSGVzc2Vu
MRQwEgYDVQQKDAtwcml2YWN5aWRlYTEOMAwGA1UEAwwFQ0EwMDGCCQD7yOusg80S
BzATBgNVHSUEDDAKBggrBgEFBQcDATANBgkqhkiG9w0BAQsFAAOCAQEAhlub7CYY
cWGZHAQVTtrUZ4eHkBkobhMRa79jggks332kybCIn6kn7uSGWhEZHfJiPmmcWM3K
GVDC3kSKHLzjQet5aGhQRL79WUoLEGhV5LtYs8hJRHensmukyeuvwhh2TDhwW8Bk
SFCco0Aj7dV8SqEKolU8cCiybNQn/2rhlNUzKbevgsAUzt8NdyNWNVYRx8J1mDUh
S9V24mM4DHClCErlyHbQqqEw2yOB1tSfYnABQzLmo6NzS0D6TVFGJbEr8Prtk3v6
yDQ3BkCl5K3/0zxFawsrsJ0AQcvIJUABB6uXItgKEsJFqAtJoLjW2R2keeFQjocn
Evl5N3PpIp4rMQ==
-----END CERTIFICATE-----
