Certificate:
    Data:
        Version: 3 (0x2)
        Serial Number: 268435712 (0x10000100)
    Signature Algorithm: sha1WithRSAEncryption
        Issuer: C=DE, ST=Hessen, O=privacyidea, CN=CA001
        Validity
            Not Before: Apr 26 13:31:56 2016 GMT
            Not After : Apr 26 13:31:56 2017 GMT
        Subject: OU=realm1, CN=cornelius/emailAddress=user@localhost.localdomain
        Subject Public Key Info:
            Public Key Algorithm: rsaEncryption
                Public-Key: (2048 bit)
                Modulus:
                    00:b1:44:f6:e5:b2:92:d9:b2:39:52:19:4f:6b:98:
                    70:a4:08:91:d9:11:31:ce:c3:47:1d:29:b9:59:e0:
                    53:9b:53:40:03:94:6d:21:de:6b:fc:cb:c2:ec:8f:
                    f6:15:af:27:58:69:7d:09:16:0e:ea:6d:7b:fd:aa:
                    7e:00:08:8e:9f:a0:7c:43:c4:09:75:5e:ff:b1:91:
                    84:71:dc:07:61:59:0f:e8:30:05:98:52:65:6e:17:
                    b1:88:16:9e:00:c5:04:2a:63:66:7e:37:76:64:96:
                    38:9d:60:49:04:fc:c9:65:17:bd:83:fc:5d:54:7a:
                    cd:cf:61:12:56:c3:0b:c6:a9:7c:de:33:76:c0:71:
                    75:00:04:02:77:8c:99:c1:c4:10:63:65:fd:c6:c5:
                    2a:a0:0a:c5:17:13:3e:8a:19:04:cc:7c:f3:bc:51:
                    15:1a:35:0a:28:9f:6e:3e:fc:27:f3:b8:83:39:4b:
                    ac:98:2b:aa:9a:50:23:ce:31:43:27:0d:74:5e:af:
                    69:05:10:9d:9d:80:4d:74:19:c3:6e:53:10:09:55:
                    de:cd:78:94:fa:d7:64:73:c2:b8:a7:40:5f:f6:47:
                    6e:8e:6e:32:08:f1:b2:d6:8f:a2:ef:05:c0:b6:c6:
                    29:2e:da:ce:a7:6f:aa:d0:e3:79:9d:ca:9c:c4:51:
                    60:41
                Exponent: 65537 (0x10001)
        X509v3 extensions:
            X509v3 Key Usage: 
                Digital Signature, Key Encipherment
            X509v3 Basic Constraints: 
                CA:FALSE
            Netscape Cert Type: 
                SSL Server
            Netscape Comment: 
                OpenSSL Generated Server Certificate
            X509v3 Subject Key Identifier: 
                6A:00:4E:F0:6B:22:EF:09:A5:4B:1E:72:EB:39:97:13:BB:56:EB:D2
            X509v3 Authority Key Identifier: 
                keyid:F4:A7:C0:CC:91:46:AF:64:F3:91:F2:27:F8:C8:B2:6F:8A:87:32:73
                DirName:/C=DE/ST=Hessen/O=privacyidea/CN=CA001
                serial:FB:C8:EB:AC:83:CD:12:07

            X509v3 Extended Key Usage: 
                TLS Web Server Authentication
    Signature Algorithm: sha1WithRSAEncryption
         25:30:75:11:c6:ce:ac:d1:6d:c8:b7:e8:de:75:23:16:6f:37:
         c8:0a:4e:8b:74:de:9d:c0:b2:15:08:eb:f4:06:2d:96:f4:74:
         9c:1e:1b:ee:75:39:82:d0:53:2c:bd:ba:ec:9e:18:dc:1b:65:
         1c:14:63:4f:db:ba:48:8d:a5:cd:08:08:cf:81:43:28:82:c4:
         cb:a5:e2:cc:f9:17:5f:99:94:e3:e1:89:1b:dc:07:0f:a3:8f:
         18:33:f1:65:13:ae:8f:79:9f:51:b6:46:8f:78:f9:36:60:28:
         b8:df:fb:50:70:3a:4f:42:85:53:0e:e3:94:08:71:ad:59:03:
         1c:07:e6:64:f7:b2:bd:b5:32:7c:07:87:47:79:99:a7:55:3b:
         a4:2b:aa:33:39:87:51:57:8c:c7:2a:2c:27:c7:b0:21:08:30:
         17:96:92:4b:c5:f2:f7:49:54:7f:fa:37:fd:33:38:84:1d:c9:
         e1:0b:92:e2:8a:a8:91:49:c9:2e:c3:82:32:e6:f7:2f:6b:a3:
         16:43:1d:5a:c7:8c:c2:1a:5b:c7:e0:35:84:85:ac:79:50:f5:
         b0:3c:7f:59:2a:e1:79:1d:09:5c:ab:9c:78:6d:20:f4:6f:55:
         e0:be:cd:ee:bf:6e:b1:c0:08:6e:ec:16:65:94:e2:38:1e:df:
         26:af:c9:c2
-----BEGIN CERTIFICATE-----
MIIEIjCCAwqgAwIBAgIEEAABADANBgkqhkiG9w0BAQUFADBEMQswCQYDVQQGEwJE
RTEPMA0GA1UECAwGSGVzc2VuMRQwEgYDVQQKDAtwcml2YWN5aWRlYTEOMAwGA1UE
AwwFQ0EwMDEwHhcNMTYwNDI2MTMzMTU2WhcNMTcwNDI2MTMzMTU2WjBQMQ8wDQYD
VQQLEwZyZWFsbTExEjAQBgNVBAMTCWNvcm5lbGl1czEpMCcGCSqGSIb3DQEJARYa
dXNlckBsb2NhbGhvc3QubG9jYWxkb21haW4wggEiMA0GCSqGSIb3DQEBAQUAA4IB
DwAwggEKAoIBAQCxRPblspLZsjlSGU9rmHCkCJHZETHOw0cdKblZ4FObU0ADlG0h
3mv8y8Lsj/YVrydYaX0JFg7qbXv9qn4ACI6foHxDxAl1Xv+xkYRx3AdhWQ/oMAWY
UmVuF7GIFp4AxQQqY2Z+N3ZkljidYEkE/MllF72D/F1Ues3PYRJWwwvGqXzeM3bA
cXUABAJ3jJnBxBBjZf3GxSqgCsUXEz6KGQTMfPO8URUaNQoon24+/CfzuIM5S6yY
K6qaUCPOMUMnDXRer2kFEJ2dgE10GcNuUxAJVd7NeJT612RzwrinQF/2R26ObjII
8bLWj6LvBcC2xiku2s6nb6rQ43mdypzEUWBBAgMBAAGjggEOMIIBCjALBgNVHQ8E
BAMCBaAwCQYDVR0TBAIwADARBglghkgBhvhCAQEEBAMCBkAwMwYJYIZIAYb4QgEN
BCYWJE9wZW5TU0wgR2VuZXJhdGVkIFNlcnZlciBDZXJ0aWZpY2F0ZTAdBgNVHQ4E
FgQUagBO8Gsi7wmlSx5y6zmXE7tW69IwdAYDVR0jBG0wa4AU9KfAzJFGr2TzkfIn
+Miyb4qHMnOhSKRGMEQxCzAJBgNVBAYTAkRFMQ8wDQYDVQQIDAZIZXNzZW4xFDAS
BgNVBAoMC3ByaXZhY3lpZGVhMQ4wDAYDVQQDDAVDQTAwMYIJAPvI66yDzRIHMBMG
A1UdJQQMMAoGCCsGAQUFBwMBMA0GCSqGSIb3DQEBBQUAA4IBAQAlMHURxs6s0W3I
t+jedSMWbzfICk6LdN6dwLIVCOv0Bi2W9HScHhvudTmC0FMsvbrsnhjcG2UcFGNP
27pIjaXNCAjPgUMogsTLpeLM+RdfmZTj4Ykb3AcPo48YM/FlE66PeZ9RtkaPePk2
YCi43/tQcDpPQoVTDuOUCHGtWQMcB+Zk97K9tTJ8B4dHeZmnVTukK6ozOYdRV4zH
Kiwnx7AhCDAXlpJLxfL3SVR/+jf9MziEHcnhC5LiiqiRSckuw4Iy5vcva6MWQx1a
x4zCGlvH4DWEhax5UPWwPH9ZKuF5HQlcq5x4bSD0b1Xgvs3uv26xwAhu7BZllOI4
Ht8mr8nC
-----END CERTIFICATE-----
