Certificate:
    Data:
        Version: 3 (0x2)
        Serial Number: 268435689 (0x100000e9)
    Signature Algorithm: sha256WithRSAEncryption
        Issuer: C=DE, ST=Hessen, O=privacyidea, CN=CA001
        Validity
            Not Before: Sep  7 14:15:47 2017 GMT
            Not After : Sep  7 14:15:47 2018 GMT
        Subject: CN=selfservice,CN=user,O=realm1/emailAddress=meine
        Subject Public Key Info:
            Public Key Algorithm: rsaEncryption
                Public-Key: (2048 bit)
                Modulus:
                    00:cf:3c:d4:33:0e:12:c4:e6:da:cd:b6:56:a1:1c:
                    26:bb:26:1c:8a:4a:73:a8:58:8a:b6:1e:b3:8b:99:
                    d2:1d:07:c2:92:89:79:c0:69:d8:c8:df:28:61:98:
                    1e:b3:fe:ae:2b:bd:78:a9:f7:6e:47:dc:a3:a0:16:
                    8c:85:02:c1:4e:92:fd:72:6e:f0:c8:03:29:9b:b8:
                    00:6e:c0:83:95:c8:34:20:36:9c:b3:e5:e4:e6:76:
                    73:a3:1a:ad:40:96:e0:53:54:00:ec:76:79:9a:c6:
                    0d:7e:b6:bd:29:ec:83:f3:cb:89:a4:cb:6c:00:ba:
                    0c:c5:78:0f:ff:69:b8:94:f4:04:70:43:3f:d8:9e:
                    d7:a7:fb:5d:ce:75:8e:da:e7:c4:07:b1:9d:de:6f:
                    88:4b:b6:4d:9a:cf:f9:bc:fa:9f:cd:32:6d:f6:3a:
                    0b:0d:23:42:78:ec:97:42:bf:0e:4d:60:56:e1:d3:
                    02:f2:19:cb:84:57:90:e5:70:a1:a2:83:35:86:e2:
                    da:86:9f:f9:8a:c4:79:b3:52:28:da:cb:bb:34:ca:
                    d3:da:91:4a:cf:8d:76:a2:b2:6b:9b:f9:96:fd:09:
                    2a:da:11:23:4d:f0:cb:d6:b2:b1:0e:12:6c:9a:19:
                    65:98:87:ca:e4:ee:24:ce:44:ac:90:8f:9d:1b:c5:
                    2a:9d
                Exponent: 65537 (0x10001)
        X509v3 extensions:
            X509v3 Key Usage: 
                Digital Signature, Key Encipherment
            X509v3 Basic Constraints: 
                CA:FALSE
            Netscape Cert Type: 
                SSL Server
            Netscape Comment: 
                OpenSSL Generated Server Certificate
            X509v3 Subject Key Identifier: 
                4D:07:90:AD:FF:1D:0D:E7:1A:DD:D6:2E:FA:BA:34:CB:AA:1F:24:C6
            X509v3 Authority Key Identifier: 
                keyid:F4:A7:C0:CC:91:46:AF:64:F3:91:F2:27:F8:C8:B2:6F:8A:87:32:73
                DirName:/C=DE/ST=Hessen/O=privacyidea/CN=CA001
                serial:FB:C8:EB:AC:83:CD:12:07

            X509v3 Extended Key Usage: 
                TLS Web Server Authentication
    Signature Algorithm: sha256WithRSAEncryption
         1f:68:09:33:1f:bf:5d:3c:32:fc:10:73:1a:de:4e:f1:74:37:
         e1:a1:9a:9f:4f:ef:55:22:03:87:c1:10:cf:d0:60:db:fd:11:
         a4:6a:0d:5a:9e:a3:48:05:96:fa:3f:95:74:1d:fe:1d:57:93:
         cd:bc:7a:a0:9c:dc:38:90:2a:01:78:a9:1c:8c:ea:32:19:8c:
         a3:36:19:87:35:4f:f5:74:ad:10:0a:62:9b:cb:7b:40:0d:d1:
         59:03:ee:7a:89:c3:87:4b:39:83:57:f7:91:18:3c:d9:f1:75:
         d9:73:b4:2c:49:4b:39:63:75:b9:d6:8c:db:13:ef:bb:37:f0:
         9c:da:00:91:89:00:a2:ac:43:de:03:2a:3e:ca:fb:55:53:a6:
         9d:c1:2f:0c:d1:2d:8e:70:94:47:a0:e0:98:cc:12:3f:e4:83:
         4d:c2:99:e2:fd:2c:e1:91:10:e7:1f:e2:05:b0:88:30:c0:53:
         45:22:83:41:39:a1:02:00:93:fa:8b:db:32:4e:de:02:80:cf:
         ae:ca:c4:62:ae:3b:0f:a9:2a:9b:74:3b:6c:c5:c1:78:6c:4a:
         c0:43:6c:70:67:31:5b:32:32:32:6c:4e:22:1f:dd:73:fe:ef:
         99:ea:69:e5:1d:d8:e4:68:6f:d5:3f:47:2c:0c:19:9e:c9:97:
         14:8a:94:3f
-----BEGIN CERTIFICATE-----
MIIEDzCCAvegAwIBAgIEEAAA6TANBgkqhkiG9w0BAQsFADBEMQswCQYDVQQGEwJE
RTEPMA0GA1UECAwGSGVzc2VuMRQwEgYDVQQKDAtwcml2YWN5aWRlYTEOMAwGA1UE
AwwFQ0EwMDEwHhcNMTcwOTA3MTQxNTQ3WhcNMTgwOTA3MTQxNTQ3WjA9MSUwIwYD
VQQDDBxzZWxmc2VydmljZSxDTj11c2VyLE89cmVhbG0xMRQwEgYJKoZIhvcNAQkB
FgVtZWluZTCCASIwDQYJKoZIhvcNAQEBBQADggEPADCCAQoCggEBAM881DMOEsTm
2s22VqEcJrsmHIpKc6hYirYes4uZ0h0HwpKJecBp2MjfKGGYHrP+riu9eKn3bkfc
o6AWjIUCwU6S/XJu8MgDKZu4AG7Ag5XINCA2nLPl5OZ2c6MarUCW4FNUAOx2eZrG
DX62vSnsg/PLiaTLbAC6DMV4D/9puJT0BHBDP9ie16f7Xc51jtrnxAexnd5viEu2
TZrP+bz6n80ybfY6Cw0jQnjsl0K/Dk1gVuHTAvIZy4RXkOVwoaKDNYbi2oaf+YrE
ebNSKNrLuzTK09qRSs+NdqKya5v5lv0JKtoRI03wy9aysQ4SbJoZZZiHyuTuJM5E
rJCPnRvFKp0CAwEAAaOCAQ4wggEKMAsGA1UdDwQEAwIFoDAJBgNVHRMEAjAAMBEG
CWCGSAGG+EIBAQQEAwIGQDAzBglghkgBhvhCAQ0EJhYkT3BlblNTTCBHZW5lcmF0
ZWQgU2VydmVyIENlcnRpZmljYXRlMB0GA1UdDgQWBBRNB5Ct/x0N5xrd1i76ujTL
qh8kxjB0BgNVHSMEbTBrgBT0p8DMkUavZPOR8if4yLJviocyc6FIpEYwRDELMAkG
A1UEBhMCREUxDzANBgNVBAgMBkhlc3NlbjEUMBIGA1UECgwLcHJpdmFjeWlkZWEx
DjAMBgNVBAMMBUNBMDAxggkA+8jrrIPNEgcwEwYDVR0lBAwwCgYIKwYBBQUHAwEw
DQYJKoZIhvcNAQELBQADggEBAB9oCTMfv108MvwQcxreTvF0N+Ghmp9P71UiA4fB
EM/QYNv9EaRqDVqeo0gFlvo/lXQd/h1Xk828eqCc3DiQKgF4qRyM6jIZjKM2GYc1
T/V0rRAKYpvLe0AN0VkD7nqJw4dLOYNX95EYPNnxddlztCxJSzljdbnWjNsT77s3
8JzaAJGJAKKsQ94DKj7K+1VTpp3BLwzRLY5wlEeg4JjMEj/kg03CmeL9LOGREOcf
4gWwiDDAU0Uig0E5oQIAk/qL2zJO3gKAz67KxGKuOw+pKpt0O2zFwXhsSsBDbHBn
MVsyMjJsTiIf3XP+75nqaeUd2ORob9U/RywMGZ7JlxSKlD8=
-----END CERTIFICATE-----
