Certificate:
    Data:
        Version: 3 (0x2)
        Serial Number: 268435683 (0x100000e3)
    Signature Algorithm: sha256WithRSAEncryption
        Issuer: C=DE, ST=Hessen, O=privacyidea, CN=CA001
        Validity
            Not Before: Jun  5 17:29:06 2018 GMT
            Not After : Jun  5 17:29:06 2019 GMT
        Subject: OU=realm1, CN=cornelius/emailAddress=user@localhost.localdomain
        Subject Public Key Info:
            Public Key Algorithm: rsaEncryption
                Public-Key: (2048 bit)
                Modulus:
                    00:da:27:97:e5:3a:7a:19:25:41:7c:84:71:26:e9:
                    25:be:a7:51:c4:49:3b:42:b5:62:8d:a9:b9:94:ba:
                    47:21:a5:09:bd:0b:34:69:c5:53:7f:e6:4e:80:7a:
                    0a:37:d2:9d:76:98:56:b4:99:37:a2:54:e1:d3:7b:
                    3d:62:6e:d7:00:83:b8:29:ea:d1:c2:7c:29:cb:2f:
                    29:be:c3:25:e2:1a:60:f2:3a:4c:d2:3c:82:d1:0b:
                    28:54:e6:cb:36:0d:da:4f:31:d6:30:fa:e5:ca:21:
                    0d:be:d1:ca:76:fd:6b:d1:56:e7:a5:ad:c3:f3:ec:
                    1a:15:03:ad:aa:86:a7:1d:f5:88:fd:1f:ba:ef:8e:
                    f9:de:20:5f:86:61:4b:ff:a3:9a:d2:9a:b0:22:e1:
                    02:3b:4b:ec:3e:a7:e6:b9:22:b9:fe:ac:68:7f:2a:
                    67:16:32:a6:49:98:9d:83:7f:e2:77:81:ab:53:e7:
                    30:35:ca:4b:d3:3e:80:3f:50:37:76:15:99:aa:18:
                    21:45:d1:2a:5f:fa:77:50:09:78:5c:54:f5:17:77:
                    93:6f:a1:86:1a:2a:a4:8e:bd:4e:6a:83:08:fd:9e:
                    2a:88:16:6c:1d:b9:61:37:1f:11:00:2c:fc:82:4a:
                    d1:60:fe:8f:9a:c6:d5:d9:1b:32:5e:af:d2:f8:86:
                    d8:a9
                Exponent: 65537 (0x10001)
        X509v3 extensions:
            X509v3 Key Usage: 
                Digital Signature, Key Encipherment
            X509v3 Basic Constraints: 
                CA:FALSE
            Netscape Cert Type: 
                SSL Server
            Netscape Comment: 
                OpenSSL Generated Server Certificate
            X509v3 Subject Key Identifier: 
                87:15:23:3B:46:B4:55:1B:96:F7:64:34:1A:1F:A1:65:3B:47:5E:6C
            X509v3 Authority Key Identifier: 
                keyid:F4:A7:C0:CC:91:46:AF:64:F3:91:F2:27:F8:C8:B2:6F:8A:87:32:73
                DirName:/C=DE/ST=Hessen/O=privacyidea/CN=CA001
                serial:FB:C8:EB:AC:83:CD:12:07

            X509v3 Extended Key Usage: 
                TLS Web Server Authentication
    Signature Algorithm: sha256WithRSAEncryption
         bd:4d:e9:38:c9:73:a4:10:4d:25:18:c6:63:53:ba:60:a3:19:
         6a:9b:65:bd:36:f6:76:da:03:06:b1:b6:14:37:9a:78:82:22:
         5e:fc:6a:3d:a7:41:44:1c:3f:88:7b:c7:1f:c5:00:dc:e2:31:
         66:77:d6:92:60:d5:c5:2b:0f:7f:16:2c:77:2b:82:33:fe:36:
         06:e2:7e:a8:68:24:8f:09:d0:a8:3a:33:7b:f9:0c:17:48:1d:
         05:55:d0:8f:aa:a4:b9:ec:d2:2d:55:4a:f9:6b:09:44:0e:8b:
         df:e0:14:5b:b2:f8:46:9c:cd:61:94:b8:89:0d:8f:5a:3a:40:
         50:e4:f2:42:b9:08:b1:0c:fc:44:d2:30:34:9b:e0:ec:eb:1e:
         8d:ff:9c:f9:d7:a4:a9:9c:16:5b:35:38:66:f9:9c:8f:c6:7e:
         3c:6c:cf:cb:e0:f1:24:d0:17:b7:b3:e0:20:fb:af:42:78:fd:
         64:a6:52:d7:c1:f0:70:7b:0c:38:d9:b8:3e:8c:63:1e:68:3c:
         38:56:fa:b1:59:cf:03:c0:6a:ea:cb:6e:a7:5f:8c:ff:94:e4:
         e6:b5:91:66:ce:86:ad:32:7b:52:8d:47:da:3d:bd:1a:65:35:
         ee:1b:c5:02:2c:eb:5a:ad:6b:09:3c:fa:67:91:24:1c:34:92:
         16:bf:8d:8e
-----BEGIN CERTIFICATE-----
MIIEIjCCAwqgAwIBAgIEEAAA4zANBgkqhkiG9w0BAQsFADBEMQswCQYDVQQGEwJE
RTEPMA0GA1UECAwGSGVzc2VuMRQwEgYDVQQKDAtwcml2YWN5aWRlYTEOMAwGA1UE
AwwFQ0EwMDEwHhcNMTgwNjA1MTcyOTA2WhcNMTkwNjA1MTcyOTA2WjBQMQ8wDQYD
VQQLDAZyZWFsbTExEjAQBgNVBAMMCWNvcm5lbGl1czEpMCcGCSqGSIb3DQEJARYa
dXNlckBsb2NhbGhvc3QubG9jYWxkb21haW4wggEiMA0GCSqGSIb3DQEBAQUAA4IB
DwAwggEKAoIBAQDaJ5flOnoZJUF8hHEm6SW+p1HESTtCtWKNqbmUukchpQm9CzRp
xVN/5k6Aego30p12mFa0mTeiVOHTez1ibtcAg7gp6tHCfCnLLym+wyXiGmDyOkzS
PILRCyhU5ss2DdpPMdYw+uXKIQ2+0cp2/WvRVuelrcPz7BoVA62qhqcd9Yj9H7rv
jvneIF+GYUv/o5rSmrAi4QI7S+w+p+a5Irn+rGh/KmcWMqZJmJ2Df+J3gatT5zA1
ykvTPoA/UDd2FZmqGCFF0Spf+ndQCXhcVPUXd5NvoYYaKqSOvU5qgwj9niqIFmwd
uWE3HxEALPyCStFg/o+axtXZGzJer9L4htipAgMBAAGjggEOMIIBCjALBgNVHQ8E
BAMCBaAwCQYDVR0TBAIwADARBglghkgBhvhCAQEEBAMCBkAwMwYJYIZIAYb4QgEN
BCYWJE9wZW5TU0wgR2VuZXJhdGVkIFNlcnZlciBDZXJ0aWZpY2F0ZTAdBgNVHQ4E
FgQUhxUjO0a0VRuW92Q0Gh+hZTtHXmwwdAYDVR0jBG0wa4AU9KfAzJFGr2TzkfIn
+Miyb4qHMnOhSKRGMEQxCzAJBgNVBAYTAkRFMQ8wDQYDVQQIDAZIZXNzZW4xFDAS
BgNVBAoMC3ByaXZhY3lpZGVhMQ4wDAYDVQQDDAVDQTAwMYIJAPvI66yDzRIHMBMG
A1UdJQQMMAoGCCsGAQUFBwMBMA0GCSqGSIb3DQEBCwUAA4IBAQC9Tek4yXOkEE0l
GMZjU7pgoxlqm2W9NvZ22gMGsbYUN5p4giJe/Go9p0FEHD+Ie8cfxQDc4jFmd9aS
YNXFKw9/Fix3K4Iz/jYG4n6oaCSPCdCoOjN7+QwXSB0FVdCPqqS57NItVUr5awlE
Dovf4BRbsvhGnM1hlLiJDY9aOkBQ5PJCuQixDPxE0jA0m+Ds6x6N/5z516SpnBZb
NThm+ZyPxn48bM/L4PEk0Be3s+Ag+69CeP1kplLXwfBweww42bg+jGMeaDw4Vvqx
Wc8DwGrqy26nX4z/lOTmtZFmzoatMntSjUfaPb0aZTXuG8UCLOtarWsJPPpnkSQc
NJIWv42O
-----END CERTIFICATE-----
