Certificate:
    Data:
        Version: 3 (0x2)
        Serial Number: 268435714 (0x10000102)
    Signature Algorithm: sha1WithRSAEncryption
        Issuer: C=DE, ST=Hessen, O=privacyidea, CN=CA001
        Validity
            Not Before: Apr 26 13:32:29 2016 GMT
            Not After : Apr 26 13:32:29 2017 GMT
        Subject: OU=realm1, CN=cornelius/emailAddress=user@localhost.localdomain
        Subject Public Key Info:
            Public Key Algorithm: rsaEncryption
                Public-Key: (2048 bit)
                Modulus:
                    00:9a:cb:f2:2a:27:9d:f5:ba:33:f6:3e:c1:db:f3:
                    7b:2e:b2:81:b8:ea:79:96:1c:63:a5:65:a0:03:e0:
                    43:b2:59:32:b5:6e:65:2e:37:27:6f:fa:26:e2:c6:
                    ae:89:47:46:7a:66:57:18:8a:83:84:15:aa:50:56:
                    69:10:9a:16:34:ab:73:ae:e0:0a:dc:eb:41:07:0b:
                    dc:49:84:b1:f9:a7:fe:68:2d:e0:db:24:61:cb:8c:
                    0c:2e:0a:b7:f7:6e:61:25:8f:58:8b:9f:ac:62:e9:
                    33:1a:78:75:bd:2e:5e:ed:a9:ef:e7:de:0c:99:9b:
                    2e:e6:30:93:32:f8:b6:ec:ae:04:f2:38:7c:b8:ca:
                    86:30:a4:ca:2a:02:8e:ec:8f:1e:7b:6c:9c:2b:e2:
                    d6:b8:2f:9f:90:a9:e1:00:01:8a:f8:68:9c:e0:ba:
                    ca:b4:17:96:a2:ac:1a:95:7d:66:f9:ab:14:36:c6:
                    37:c0:d6:82:87:40:85:28:b9:25:9e:10:15:49:a9:
                    38:f5:0a:32:b2:97:7d:a9:1e:45:26:1f:b7:7e:89:
                    28:21:94:8f:eb:3f:d8:ae:41:1b:61:e4:52:b9:c9:
                    80:a8:63:db:c6:aa:f3:a4:5e:6a:4d:79:95:e3:43:
                    a6:d2:12:dc:40:7f:6c:03:28:02:af:50:e5:ce:1f:
                    5e:15
                Exponent: 65537 (0x10001)
        X509v3 extensions:
            X509v3 Key Usage: 
                Digital Signature, Key Encipherment
            X509v3 Basic Constraints: 
                CA:FALSE
            Netscape Cert Type: 
                SSL Server
            Netscape Comment: 
                OpenSSL Generated Server Certificate
            X509v3 Subject Key Identifier: 
                CD:9B:50:89:9B:AC:F4:E5:40:04:0B:E4:A7:50:EE:DE:CD:BA:5D:F9
            X509v3 Authority Key Identifier: 
                keyid:F4:A7:C0:CC:91:46:AF:64:F3:91:F2:27:F8:C8:B2:6F:8A:87:32:73
                DirName:/C=DE/ST=Hessen/O=privacyidea/CN=CA001
                serial:FB:C8:EB:AC:83:CD:12:07

            X509v3 Extended Key Usage: 
                TLS Web Server Authentication
    Signature Algorithm: sha1WithRSAEncryption
         15:73:36:83:30:e9:8d:b2:d4:e9:a5:ca:5f:6c:1e:50:cf:ac:
         11:8d:97:3a:13:93:7c:5f:18:66:f0:85:7e:6d:fe:47:27:9a:
         26:2e:d6:dd:99:38:c6:0f:e6:8b:28:53:65:3b:8d:1b:c9:6d:
         ca:a2:57:4e:e1:a9:cf:f2:14:12:a6:a8:07:da:1d:3b:ae:fb:
         a2:a5:70:2d:10:04:7c:a6:6a:d6:49:6e:3b:3b:be:b3:38:96:
         d8:a1:d9:2a:19:7f:9c:72:8c:a5:1e:ec:ae:d9:a6:48:0a:6d:
         1b:75:28:73:c9:38:e9:47:9c:5e:68:1b:30:22:c4:7e:c5:b2:
         d4:8a:92:11:da:19:21:e5:d4:62:f0:2c:04:7f:bf:a0:77:05:
         11:e2:09:3d:44:96:d0:01:6a:8d:a1:0b:6b:eb:20:98:62:67:
         b4:e6:85:2d:eb:94:cf:be:29:a6:15:8a:51:3a:70:82:d0:69:
         79:e6:19:7a:a0:61:28:75:f6:92:3f:ed:62:41:24:2d:28:77:
         0b:0b:3e:26:54:e1:5f:06:d1:ad:5e:22:3f:36:08:54:96:a3:
         d5:ec:69:96:3f:f7:db:5f:50:32:2a:ba:09:08:0f:7b:8c:a9:
         75:6e:e3:c9:b3:e4:ce:4f:d1:44:40:21:c4:2b:92:41:1f:95:
         a9:a7:ad:eb
-----BEGIN CERTIFICATE-----
MIIEIjCCAwqgAwIBAgIEEAABAjANBgkqhkiG9w0BAQUFADBEMQswCQYDVQQGEwJE
RTEPMA0GA1UECAwGSGVzc2VuMRQwEgYDVQQKDAtwcml2YWN5aWRlYTEOMAwGA1UE
AwwFQ0EwMDEwHhcNMTYwNDI2MTMzMjI5WhcNMTcwNDI2MTMzMjI5WjBQMQ8wDQYD
VQQLEwZyZWFsbTExEjAQBgNVBAMTCWNvcm5lbGl1czEpMCcGCSqGSIb3DQEJARYa
dXNlckBsb2NhbGhvc3QubG9jYWxkb21haW4wggEiMA0GCSqGSIb3DQEBAQUAA4IB
DwAwggEKAoIBAQCay/IqJ531ujP2PsHb83susoG46nmWHGOlZaAD4EOyWTK1bmUu
Nydv+ibixq6JR0Z6ZlcYioOEFapQVmkQmhY0q3Ou4Arc60EHC9xJhLH5p/5oLeDb
JGHLjAwuCrf3bmElj1iLn6xi6TMaeHW9Ll7tqe/n3gyZmy7mMJMy+LbsrgTyOHy4
yoYwpMoqAo7sjx57bJwr4ta4L5+QqeEAAYr4aJzgusq0F5airBqVfWb5qxQ2xjfA
1oKHQIUouSWeEBVJqTj1CjKyl32pHkUmH7d+iSghlI/rP9iuQRth5FK5yYCoY9vG
qvOkXmpNeZXjQ6bSEtxAf2wDKAKvUOXOH14VAgMBAAGjggEOMIIBCjALBgNVHQ8E
BAMCBaAwCQYDVR0TBAIwADARBglghkgBhvhCAQEEBAMCBkAwMwYJYIZIAYb4QgEN
BCYWJE9wZW5TU0wgR2VuZXJhdGVkIFNlcnZlciBDZXJ0aWZpY2F0ZTAdBgNVHQ4E
FgQUzZtQiZus9OVABAvkp1Du3s26XfkwdAYDVR0jBG0wa4AU9KfAzJFGr2TzkfIn
+Miyb4qHMnOhSKRGMEQxCzAJBgNVBAYTAkRFMQ8wDQYDVQQIDAZIZXNzZW4xFDAS
BgNVBAoMC3ByaXZhY3lpZGVhMQ4wDAYDVQQDDAVDQTAwMYIJAPvI66yDzRIHMBMG
A1UdJQQMMAoGCCsGAQUFBwMBMA0GCSqGSIb3DQEBBQUAA4IBAQAVczaDMOmNstTp
pcpfbB5Qz6wRjZc6E5N8Xxhm8IV+bf5HJ5omLtbdmTjGD+aLKFNlO40byW3KoldO
4anP8hQSpqgH2h07rvuipXAtEAR8pmrWSW47O76zOJbYodkqGX+ccoylHuyu2aZI
Cm0bdShzyTjpR5xeaBswIsR+xbLUipIR2hkh5dRi8CwEf7+gdwUR4gk9RJbQAWqN
oQtr6yCYYme05oUt65TPvimmFYpROnCC0Gl55hl6oGEodfaSP+1iQSQtKHcLCz4m
VOFfBtGtXiI/NghUlqPV7GmWP/fbX1AyKroJCA97jKl1buPJs+TOT9FEQCHEK5JB
H5Wpp63r
-----END CERTIFICATE-----
