Certificate:
    Data:
        Version: 3 (0x2)
        Serial Number: 268435701 (0x100000f5)
    Signature Algorithm: sha1WithRSAEncryption
        Issuer: C=DE, ST=Hessen, O=privacyidea, CN=CA001
        Validity
            Not Before: Feb 23 15:35:40 2017 GMT
            Not After : Feb 23 15:35:40 2018 GMT
        Subject: C=DE, ST=Hessen, O=privacyidea, CN=usercert
        Subject Public Key Info:
            Public Key Algorithm: rsaEncryption
                Public-Key: (2048 bit)
                Modulus:
                    00:dc:2f:d1:5f:29:97:d4:7c:c3:53:c8:30:bd:4b:
                    67:70:2c:24:6b:b8:5e:eb:21:7a:48:12:56:7c:81:
                    5c:48:75:b6:68:eb:f6:f2:98:4e:50:51:d1:7f:6c:
                    73:f3:0a:a7:ae:be:48:5e:e5:d6:e1:d9:2a:7c:32:
                    6e:4e:fd:08:f6:5a:54:49:23:73:c3:b9:07:18:d1:
                    ef:b3:ac:f8:8a:dc:94:96:a4:90:3a:8e:74:df:e6:
                    0d:37:1b:bd:5b:b7:25:1a:56:39:da:6f:91:aa:5e:
                    1c:74:f3:f9:7c:14:01:83:12:65:76:c7:bb:fe:36:
                    5b:95:e9:72:65:83:ed:3e:98:30:71:fa:87:dd:a3:
                    36:5a:30:03:2e:26:e0:61:d1:bf:02:3f:b6:06:1f:
                    4a:89:28:1c:5c:a2:ff:4e:be:94:e6:8c:e0:da:82:
                    f1:9d:29:32:48:30:73:b4:04:f6:42:1e:be:f7:e2:
                    32:32:27:3c:9d:89:2f:70:3e:85:9a:6f:5c:c5:09:
                    c0:8c:32:2f:72:22:c9:d2:95:1f:b6:ac:72:60:72:
                    b7:82:4d:6b:ce:5b:e3:00:d0:d2:2f:58:c6:e0:10:
                    e5:51:ca:4d:3b:2e:e6:7e:ab:84:d6:56:f1:93:35:
                    a0:93:64:26:81:75:2f:91:b5:16:06:38:0b:db:cc:
                    2d:07
                Exponent: 65537 (0x10001)
        X509v3 extensions:
            X509v3 Key Usage: 
                Digital Signature, Key Encipherment
            X509v3 Basic Constraints: 
                CA:FALSE
            Netscape Cert Type: 
                SSL Server
            Netscape Comment: 
                OpenSSL Generated Server Certificate
            X509v3 Subject Key Identifier: 
                FC:14:D1:F0:4B:8D:00:90:F2:F5:B8:71:9E:4E:97:C3:92:54:AD:0B
            X509v3 Authority Key Identifier: 
                keyid:F4:A7:C0:CC:91:46:AF:64:F3:91:F2:27:F8:C8:B2:6F:8A:87:32:73
                DirName:/C=DE/ST=Hessen/O=privacyidea/CN=CA001
                serial:FB:C8:EB:AC:83:CD:12:07

            X509v3 Extended Key Usage: 
                TLS Web Server Authentication
    Signature Algorithm: sha1WithRSAEncryption
         a9:44:12:35:ed:ef:33:78:c1:c9:01:02:5c:6f:92:45:cc:1b:
         63:7f:47:78:e3:25:26:24:42:bf:4a:c5:63:02:e1:ca:e9:68:
         65:73:01:a4:a4:d9:12:9f:b2:c6:42:72:d1:ba:85:86:c9:67:
         6d:d4:56:af:8e:68:d0:a8:0a:d7:30:a7:7c:11:a2:e2:fe:fa:
         ff:5b:33:43:cb:ba:2b:b8:0b:1f:54:4d:e7:9f:2d:79:d4:09:
         88:04:cb:60:f8:54:60:a5:76:59:8f:2a:d1:94:e4:f2:b3:f7:
         57:d6:1d:4e:91:a9:85:89:88:8e:5d:68:19:eb:25:5b:b0:51:
         f5:92:c5:83:f7:3b:32:62:69:b0:ac:29:48:b6:ed:f8:44:8f:
         c7:da:11:c1:60:a7:61:2e:2b:f3:66:6e:f5:79:05:ea:14:7e:
         f8:39:7b:c2:f0:a7:dc:ec:4f:01:15:dc:50:9f:db:33:6c:f0:
         52:cf:a5:fb:cc:c8:a9:8c:71:ef:53:fc:1d:e4:d0:88:c0:e3:
         1a:60:2f:71:8d:94:d8:4a:5b:36:74:92:7e:9f:22:2f:d2:a1:
         b9:e0:66:14:ee:7f:84:f9:d3:a7:b1:27:b6:4d:74:da:85:61:
         5f:de:cf:4e:6d:49:35:b2:22:39:48:b3:c2:f3:0b:71:d4:01:
         b2:0a:6c:90
-----BEGIN CERTIFICATE-----
MIIEGTCCAwGgAwIBAgIEEAAA9TANBgkqhkiG9w0BAQUFADBEMQswCQYDVQQGEwJE
RTEPMA0GA1UECAwGSGVzc2VuMRQwEgYDVQQKDAtwcml2YWN5aWRlYTEOMAwGA1UE
AwwFQ0EwMDEwHhcNMTcwMjIzMTUzNTQwWhcNMTgwMjIzMTUzNTQwWjBHMQswCQYD
VQQGEwJERTEPMA0GA1UECAwGSGVzc2VuMRQwEgYDVQQKDAtwcml2YWN5aWRlYTER
MA8GA1UEAwwIdXNlcmNlcnQwggEiMA0GCSqGSIb3DQEBAQUAA4IBDwAwggEKAoIB
AQDcL9FfKZfUfMNTyDC9S2dwLCRruF7rIXpIElZ8gVxIdbZo6/bymE5QUdF/bHPz
Cqeuvkhe5dbh2Sp8Mm5O/Qj2WlRJI3PDuQcY0e+zrPiK3JSWpJA6jnTf5g03G71b
tyUaVjnab5GqXhx08/l8FAGDEmV2x7v+NluV6XJlg+0+mDBx+ofdozZaMAMuJuBh
0b8CP7YGH0qJKBxcov9OvpTmjODagvGdKTJIMHO0BPZCHr734jIyJzydiS9wPoWa
b1zFCcCMMi9yIsnSlR+2rHJgcreCTWvOW+MA0NIvWMbgEOVRyk07LuZ+q4TWVvGT
NaCTZCaBdS+RtRYGOAvbzC0HAgMBAAGjggEOMIIBCjALBgNVHQ8EBAMCBaAwCQYD
VR0TBAIwADARBglghkgBhvhCAQEEBAMCBkAwMwYJYIZIAYb4QgENBCYWJE9wZW5T
U0wgR2VuZXJhdGVkIFNlcnZlciBDZXJ0aWZpY2F0ZTAdBgNVHQ4EFgQU/BTR8EuN
AJDy9bhxnk6Xw5JUrQswdAYDVR0jBG0wa4AU9KfAzJFGr2TzkfIn+Miyb4qHMnOh
SKRGMEQxCzAJBgNVBAYTAkRFMQ8wDQYDVQQIDAZIZXNzZW4xFDASBgNVBAoMC3By
aXZhY3lpZGVhMQ4wDAYDVQQDDAVDQTAwMYIJAPvI66yDzRIHMBMGA1UdJQQMMAoG
CCsGAQUFBwMBMA0GCSqGSIb3DQEBBQUAA4IBAQCpRBI17e8zeMHJAQJcb5JFzBtj
f0d44yUmJEK/SsVjAuHK6WhlcwGkpNkSn7LGQnLRuoWGyWdt1FavjmjQqArXMKd8
EaLi/vr/WzNDy7oruAsfVE3nny151AmIBMtg+FRgpXZZjyrRlOTys/dX1h1OkamF
iYiOXWgZ6yVbsFH1ksWD9zsyYmmwrClItu34RI/H2hHBYKdhLivzZm71eQXqFH74
OXvC8Kfc7E8BFdxQn9szbPBSz6X7zMipjHHvU/wd5NCIwOMaYC9xjZTYSls2dJJ+
nyIv0qG54GYU7n+E+dOnsSe2TXTahWFf3s9ObUk1siI5SLPC8wtx1AGyCmyQ
-----END CERTIFICATE-----
