Certificate:
    Data:
        Version: 3 (0x2)
        Serial Number: 268435681 (0x100000e1)
    Signature Algorithm: sha256WithRSAEncryption
        Issuer: C=DE, ST=Hessen, O=privacyidea, CN=CA001
        Validity
            Not Before: Aug 30 16:15:23 2018 GMT
            Not After : Aug 30 16:15:23 2019 GMT
        Subject: CN=selfservice,CN=user,O=realm1/emailAddress=meine
        Subject Public Key Info:
            Public Key Algorithm: rsaEncryption
                Public-Key: (2048 bit)
                Modulus:
                    00:cf:3c:d4:33:0e:12:c4:e6:da:cd:b6:56:a1:1c:
                    26:bb:26:1c:8a:4a:73:a8:58:8a:b6:1e:b3:8b:99:
                    d2:1d:07:c2:92:89:79:c0:69:d8:c8:df:28:61:98:
                    1e:b3:fe:ae:2b:bd:78:a9:f7:6e:47:dc:a3:a0:16:
                    8c:85:02:c1:4e:92:fd:72:6e:f0:c8:03:29:9b:b8:
                    00:6e:c0:83:95:c8:34:20:36:9c:b3:e5:e4:e6:76:
                    73:a3:1a:ad:40:96:e0:53:54:00:ec:76:79:9a:c6:
                    0d:7e:b6:bd:29:ec:83:f3:cb:89:a4:cb:6c:00:ba:
                    0c:c5:78:0f:ff:69:b8:94:f4:04:70:43:3f:d8:9e:
                    d7:a7:fb:5d:ce:75:8e:da:e7:c4:07:b1:9d:de:6f:
                    88:4b:b6:4d:9a:cf:f9:bc:fa:9f:cd:32:6d:f6:3a:
                    0b:0d:23:42:78:ec:97:42:bf:0e:4d:60:56:e1:d3:
                    02:f2:19:cb:84:57:90:e5:70:a1:a2:83:35:86:e2:
                    da:86:9f:f9:8a:c4:79:b3:52:28:da:cb:bb:34:ca:
                    d3:da:91:4a:cf:8d:76:a2:b2:6b:9b:f9:96:fd:09:
                    2a:da:11:23:4d:f0:cb:d6:b2:b1:0e:12:6c:9a:19:
                    65:98:87:ca:e4:ee:24:ce:44:ac:90:8f:9d:1b:c5:
                    2a:9d
                Exponent: 65537 (0x10001)
        X509v3 extensions:
            X509v3 Key Usage: 
                Digital Signature, Key Encipherment
            X509v3 Basic Constraints: 
                CA:FALSE
            Netscape Cert Type: 
                SSL Server
            Netscape Comment: 
                OpenSSL Generated Server Certificate
            X509v3 Subject Key Identifier: 
                4D:07:90:AD:FF:1D:0D:E7:1A:DD:D6:2E:FA:BA:34:CB:AA:1F:24:C6
            X509v3 Authority Key Identifier: 
                keyid:F4:A7:C0:CC:91:46:AF:64:F3:91:F2:27:F8:C8:B2:6F:8A:87:32:73
                DirName:/C=DE/ST=Hessen/O=privacyidea/CN=CA001
                serial:FB:C8:EB:AC:83:CD:12:07

            X509v3 Extended Key Usage: 
                TLS Web Server Authentication
    Signature Algorithm: sha256WithRSAEncryption
         7a:0d:3a:10:09:5e:5b:db:73:86:f2:7b:72:4d:cd:25:62:49:
         c6:e9:fc:72:c8:2d:ee:b1:a7:53:3d:f0:d8:55:49:c0:c0:97:
         8a:89:60:91:fa:ed:c5:dc:15:12:a4:13:f3:15:fa:b5:5f:c3:
         40:5c:1d:ec:5c:5d:3c:9c:80:17:ea:2e:54:16:51:83:91:68:
         2a:25:ad:a9:4c:86:06:d4:e8:10:3f:97:63:c9:12:de:3e:c5:
         bd:9c:db:4d:77:1a:2a:69:55:e8:aa:6d:75:dc:65:16:e5:81:
         4f:b6:2e:2b:d8:4e:14:cc:d3:89:09:25:a0:82:37:b3:bc:4a:
         89:9a:39:c7:fe:16:c0:35:13:51:07:71:e5:51:a7:42:92:2d:
         5b:97:17:5e:28:36:cb:44:38:14:10:f0:44:e6:c2:03:7f:ce:
         68:b4:51:03:48:7d:4e:53:b4:b7:1f:0e:2f:bf:c4:2b:79:3b:
         ee:10:a3:05:58:de:d3:64:f2:3e:c6:7f:d3:37:3d:cd:67:b4:
         31:82:7e:ed:ed:c4:fd:34:97:c8:da:04:d6:35:29:7f:f9:3e:
         1a:04:8c:bb:c6:c8:d5:b9:b1:a4:29:75:2b:dd:40:65:2c:43:
         ff:1d:86:f0:89:a3:ac:90:5b:5b:71:ac:8c:40:39:da:e1:01:
         18:4a:a2:62
-----BEGIN CERTIFICATE-----
MIIEDzCCAvegAwIBAgIEEAAA4TANBgkqhkiG9w0BAQsFADBEMQswCQYDVQQGEwJE
RTEPMA0GA1UECAwGSGVzc2VuMRQwEgYDVQQKDAtwcml2YWN5aWRlYTEOMAwGA1UE
AwwFQ0EwMDEwHhcNMTgwODMwMTYxNTIzWhcNMTkwODMwMTYxNTIzWjA9MSUwIwYD
VQQDDBxzZWxmc2VydmljZSxDTj11c2VyLE89cmVhbG0xMRQwEgYJKoZIhvcNAQkB
FgVtZWluZTCCASIwDQYJKoZIhvcNAQEBBQADggEPADCCAQoCggEBAM881DMOEsTm
2s22VqEcJrsmHIpKc6hYirYes4uZ0h0HwpKJecBp2MjfKGGYHrP+riu9eKn3bkfc
o6AWjIUCwU6S/XJu8MgDKZu4AG7Ag5XINCA2nLPl5OZ2c6MarUCW4FNUAOx2eZrG
DX62vSnsg/PLiaTLbAC6DMV4D/9puJT0BHBDP9ie16f7Xc51jtrnxAexnd5viEu2
TZrP+bz6n80ybfY6Cw0jQnjsl0K/Dk1gVuHTAvIZy4RXkOVwoaKDNYbi2oaf+YrE
ebNSKNrLuzTK09qRSs+NdqKya5v5lv0JKtoRI03wy9aysQ4SbJoZZZiHyuTuJM5E
rJCPnRvFKp0CAwEAAaOCAQ4wggEKMAsGA1UdDwQEAwIFoDAJBgNVHRMEAjAAMBEG
CWCGSAGG+EIBAQQEAwIGQDAzBglghkgBhvhCAQ0EJhYkT3BlblNTTCBHZW5lcmF0
ZWQgU2VydmVyIENlcnRpZmljYXRlMB0GA1UdDgQWBBRNB5Ct/x0N5xrd1i76ujTL
qh8kxjB0BgNVHSMEbTBrgBT0p8DMkUavZPOR8if4yLJviocyc6FIpEYwRDELMAkG
A1UEBhMCREUxDzANBgNVBAgMBkhlc3NlbjEUMBIGA1UECgwLcHJpdmFjeWlkZWEx
DjAMBgNVBAMMBUNBMDAxggkA+8jrrIPNEgcwEwYDVR0lBAwwCgYIKwYBBQUHAwEw
DQYJKoZIhvcNAQELBQADggEBAHoNOhAJXlvbc4bye3JNzSViScbp/HLILe6xp1M9
8NhVScDAl4qJYJH67cXcFRKkE/MV+rVfw0BcHexcXTycgBfqLlQWUYORaColralM
hgbU6BA/l2PJEt4+xb2c2013GippVeiqbXXcZRblgU+2LivYThTM04kJJaCCN7O8
SomaOcf+FsA1E1EHceVRp0KSLVuXF14oNstEOBQQ8ETmwgN/zmi0UQNIfU5TtLcf
Di+/xCt5O+4QowVY3tNk8j7Gf9M3Pc1ntDGCfu3txP00l8jaBNY1KX/5PhoEjLvG
yNW5saQpdSvdQGUsQ/8dhvCJo6yQW1txrIxAOdrhARhKomI=
-----END CERTIFICATE-----
