Certificate:
    Data:
        Version: 3 (0x2)
        Serial Number: 268435665 (0x100000d1)
    Signature Algorithm: sha256WithRSAEncryption
        Issuer: C=DE, ST=Hessen, O=privacyidea, CN=CA001
        Validity
            Not Before: Oct 22 06:43:30 2018 GMT
            Not After : Oct 22 06:43:30 2019 GMT
        Subject: C=DE, ST=Hessen, O=privacyidea, CN=requester.localdomain
        Subject Public Key Info:
            Public Key Algorithm: rsaEncryption
                Public-Key: (2048 bit)
                Modulus:
                    00:cd:be:14:4f:fa:ce:01:3f:42:22:1b:1d:9c:af:
                    dd:92:d2:7f:db:6c:b7:3e:39:43:43:6b:13:03:f1:
                    05:f4:07:74:bc:76:69:28:0b:af:19:8e:d7:fc:e3:
                    cd:c6:58:f2:ca:7f:08:6d:53:fc:07:02:44:24:c6:
                    b4:34:4c:8c:04:fe:33:0e:40:e2:20:ba:02:73:5a:
                    f7:f5:4f:63:6e:cc:c6:b6:df:54:1d:37:39:7d:51:
                    36:26:5f:bd:dc:3f:a8:8b:6b:a2:ae:b6:9d:d6:21:
                    e7:df:41:b8:7a:28:2a:68:48:ca:a8:2d:ed:e1:e9:
                    46:5e:5a:72:6d:b4:84:38:87:91:fd:94:11:0b:28:
                    84:c6:c2:2f:2a:fb:01:f9:36:7a:09:75:d1:33:88:
                    3c:73:41:5b:c8:bf:94:89:70:a1:f0:c0:b9:2e:50:
                    53:1e:b1:17:64:69:f4:2d:81:e0:a9:0d:0e:32:e9:
                    ba:55:8a:85:f1:1b:6f:49:79:b4:7f:88:c3:0d:3e:
                    54:88:9b:3d:1f:38:8c:04:f3:ee:6a:63:2b:f5:c6:
                    db:b4:83:aa:c4:78:41:3a:7d:4b:e1:c8:3e:71:ca:
                    1b:61:59:ea:c6:c4:ca:32:5e:c9:e9:bf:12:29:e6:
                    c6:c3:63:fe:a0:55:da:7a:f1:60:98:4d:26:ed:fa:
                    70:2d
                Exponent: 65537 (0x10001)
        X509v3 extensions:
            X509v3 Key Usage: 
                Digital Signature, Key Encipherment
            X509v3 Basic Constraints: 
                CA:FALSE
            Netscape Cert Type: 
                SSL Server
            Netscape Comment: 
                OpenSSL Generated Server Certificate
            X509v3 Subject Key Identifier: 
                53:3F:ED:5D:09:07:B3:65:7B:AB:45:C9:24:5B:09:77:80:0A:96:ED
            X509v3 Authority Key Identifier: 
                keyid:F4:A7:C0:CC:91:46:AF:64:F3:91:F2:27:F8:C8:B2:6F:8A:87:32:73
                DirName:/C=DE/ST=Hessen/O=privacyidea/CN=CA001
                serial:FB:C8:EB:AC:83:CD:12:07

            X509v3 Extended Key Usage: 
                TLS Web Server Authentication
    Signature Algorithm: sha256WithRSAEncryption
         47:8f:63:eb:67:e2:87:82:b4:0b:7e:49:2f:9e:a2:42:c8:60:
         f6:8c:a2:7a:23:2e:1d:fa:ce:ab:a5:3d:50:b2:ac:47:9c:ac:
         b2:45:1c:68:30:2a:23:5b:ed:82:16:a6:9d:dd:af:d7:87:b6:
         ce:2e:1f:81:ef:35:6a:f6:fd:83:0e:5b:48:d5:e2:8c:60:b2:
         2d:56:4d:78:c4:e7:24:f8:60:4f:d9:dc:0d:11:40:41:d9:23:
         1e:02:16:c0:8c:3c:ec:41:0f:76:c8:74:ca:8f:1a:94:bb:22:
         bc:7b:12:0b:8b:54:e6:a7:c6:91:6c:69:44:25:20:75:a1:39:
         7b:4c:7c:6f:ec:7f:34:dd:ba:63:3c:2f:31:de:cf:44:09:2a:
         59:55:03:6a:07:fd:b0:dc:57:57:14:a3:a9:db:46:16:56:81:
         2a:3a:ca:c0:bf:43:4f:fd:3c:c7:97:d9:09:22:77:3f:5b:3c:
         d7:9f:b3:a3:b5:73:e5:f4:07:7c:80:52:44:15:92:00:39:68:
         a5:84:3b:40:1b:95:66:4d:4d:77:42:17:54:6f:37:ab:03:09:
         1e:33:19:29:4b:2c:6f:59:b8:6c:15:c1:28:64:4e:96:b8:39:
         81:de:40:b4:bb:6a:f8:31:2a:19:32:77:f5:36:1a:66:35:fa:
         4a:04:08:ce
-----BEGIN CERTIFICATE-----
MIIEJjCCAw6gAwIBAgIEEAAA0TANBgkqhkiG9w0BAQsFADBEMQswCQYDVQQGEwJE
RTEPMA0GA1UECAwGSGVzc2VuMRQwEgYDVQQKDAtwcml2YWN5aWRlYTEOMAwGA1UE
AwwFQ0EwMDEwHhcNMTgxMDIyMDY0MzMwWhcNMTkxMDIyMDY0MzMwWjBUMQswCQYD
VQQGEwJERTEPMA0GA1UECAwGSGVzc2VuMRQwEgYDVQQKDAtwcml2YWN5aWRlYTEe
MBwGA1UEAwwVcmVxdWVzdGVyLmxvY2FsZG9tYWluMIIBIjANBgkqhkiG9w0BAQEF
AAOCAQ8AMIIBCgKCAQEAzb4UT/rOAT9CIhsdnK/dktJ/22y3PjlDQ2sTA/EF9Ad0
vHZpKAuvGY7X/OPNxljyyn8IbVP8BwJEJMa0NEyMBP4zDkDiILoCc1r39U9jbszG
tt9UHTc5fVE2Jl+93D+oi2uirrad1iHn30G4eigqaEjKqC3t4elGXlpybbSEOIeR
/ZQRCyiExsIvKvsB+TZ6CXXRM4g8c0FbyL+UiXCh8MC5LlBTHrEXZGn0LYHgqQ0O
Mum6VYqF8RtvSXm0f4jDDT5UiJs9HziMBPPuamMr9cbbtIOqxHhBOn1L4cg+ccob
YVnqxsTKMl7J6b8SKebGw2P+oFXaevFgmE0m7fpwLQIDAQABo4IBDjCCAQowCwYD
VR0PBAQDAgWgMAkGA1UdEwQCMAAwEQYJYIZIAYb4QgEBBAQDAgZAMDMGCWCGSAGG
+EIBDQQmFiRPcGVuU1NMIEdlbmVyYXRlZCBTZXJ2ZXIgQ2VydGlmaWNhdGUwHQYD
VR0OBBYEFFM/7V0JB7Nle6tFySRbCXeACpbtMHQGA1UdIwRtMGuAFPSnwMyRRq9k
85HyJ/jIsm+KhzJzoUikRjBEMQswCQYDVQQGEwJERTEPMA0GA1UECAwGSGVzc2Vu
MRQwEgYDVQQKDAtwcml2YWN5aWRlYTEOMAwGA1UEAwwFQ0EwMDGCCQD7yOusg80S
BzATBgNVHSUEDDAKBggrBgEFBQcDATANBgkqhkiG9w0BAQsFAAOCAQEAR49j62fi
h4K0C35JL56iQshg9oyieiMuHfrOq6U9ULKsR5ysskUcaDAqI1vtghamnd2v14e2
zi4fge81avb9gw5bSNXijGCyLVZNeMTnJPhgT9ncDRFAQdkjHgIWwIw87EEPdsh0
yo8alLsivHsSC4tU5qfGkWxpRCUgdaE5e0x8b+x/NN26YzwvMd7PRAkqWVUDagf9
sNxXVxSjqdtGFlaBKjrKwL9DT/08x5fZCSJ3P1s815+zo7Vz5fQHfIBSRBWSADlo
pYQ7QBuVZk1Nd0IXVG83qwMJHjMZKUssb1m4bBXBKGROlrg5gd5AtLtq+DEqGTJ3
9TYaZjX6SgQIzg==
-----END CERTIFICATE-----
