Certificate:
    Data:
        Version: 3 (0x2)
        Serial Number: 268435726 (0x1000010e)
    Signature Algorithm: sha1WithRSAEncryption
        Issuer: C=DE, ST=Hessen, O=privacyidea, CN=CA001
        Validity
            Not Before: Apr 26 15:39:47 2016 GMT
            Not After : Apr 26 15:39:47 2017 GMT
        Subject: OU=local, CN=corny/emailAddress=corny@cornelinux.de
        Subject Public Key Info:
            Public Key Algorithm: rsaEncryption
                Public-Key: (2048 bit)
                Modulus:
                    00:b6:73:87:85:25:57:0a:6f:85:51:df:b5:90:b7:
                    50:c3:11:55:48:94:3b:b8:ce:ac:fa:99:86:33:fe:
                    81:80:34:16:ba:cd:b8:06:87:61:4b:d3:ad:a9:33:
                    fb:40:f7:5a:fc:95:28:02:b7:58:f1:b0:da:f4:d2:
                    ef:36:cb:f5:55:06:9a:3e:33:ef:63:df:d9:85:08:
                    41:71:e8:55:dd:bc:40:0f:1b:7d:22:2a:7b:e5:4e:
                    cd:96:4c:d7:4d:06:aa:d4:70:8b:23:bc:f2:f7:13:
                    11:1e:cf:cf:82:be:c8:34:92:f1:a8:90:0f:b3:c9:
                    77:2b:b2:c3:0d:de:85:02:31:b4:6b:3a:28:43:f3:
                    5d:0d:06:aa:dd:51:75:e7:d1:c6:c8:6d:01:be:61:
                    11:58:03:bd:67:4c:44:33:b2:bd:8a:a9:00:43:4c:
                    01:22:c1:13:f8:45:b9:47:eb:39:26:42:0c:b7:f6:
                    e5:4d:0b:cd:4b:2e:2c:5a:e7:a0:bc:ec:b5:eb:ad:
                    55:be:54:39:5f:e8:04:86:94:d5:b4:a9:78:c4:6f:
                    40:5a:e0:e3:56:f2:ce:0f:87:2c:6b:77:fc:ff:b7:
                    54:c5:bb:46:47:5f:e3:39:1c:7d:e5:88:28:47:45:
                    3b:f1:76:d1:7f:7f:cc:71:c7:70:ea:4f:d5:cc:a3:
                    ac:21
                Exponent: 65537 (0x10001)
        X509v3 extensions:
            X509v3 Key Usage: 
                Digital Signature, Key Encipherment
            X509v3 Basic Constraints: 
                CA:FALSE
            Netscape Cert Type: 
                SSL Server
            Netscape Comment: 
                OpenSSL Generated Server Certificate
            X509v3 Subject Key Identifier: 
                43:4E:C3:51:ED:4B:79:75:2E:25:BE:F1:58:E0:27:D1:BB:19:B4:58
            X509v3 Authority Key Identifier: 
                keyid:F4:A7:C0:CC:91:46:AF:64:F3:91:F2:27:F8:C8:B2:6F:8A:87:32:73
                DirName:/C=DE/ST=Hessen/O=privacyidea/CN=CA001
                serial:FB:C8:EB:AC:83:CD:12:07

            X509v3 Extended Key Usage: 
                TLS Web Server Authentication
    Signature Algorithm: sha1WithRSAEncryption
         18:10:da:00:6c:33:70:39:c3:b7:d9:8a:54:10:0c:96:b9:d0:
         ad:a9:ae:8b:40:c9:91:a4:c9:57:43:d1:28:f3:e1:12:a3:66:
         a4:ee:d0:47:ab:a0:bf:c2:cc:fe:7f:d5:21:0a:2b:a0:00:43:
         0b:5f:38:b0:cb:d6:ec:37:fc:27:82:1b:af:cd:b1:2b:07:ef:
         86:4a:7b:50:7f:a8:e1:48:a0:4c:43:69:1b:41:cc:1d:25:76:
         4d:31:f3:23:8a:e6:91:6e:33:66:28:fa:26:ee:8f:04:14:7d:
         b3:42:82:fb:f8:50:84:48:92:17:35:bc:bc:ee:70:59:29:43:
         76:d1:2e:03:18:8b:1e:4d:a4:12:67:40:b9:a3:5a:b8:e2:01:
         11:18:c7:55:f9:fd:70:a8:6a:2c:36:e2:49:35:24:d4:66:a6:
         72:75:ca:77:d4:c1:ff:f7:c7:bb:f4:dc:32:48:6a:89:00:83:
         dd:e5:47:5d:f9:fe:9d:9e:a6:ef:7c:3e:bb:70:6f:5d:17:27:
         f2:9c:92:f8:9a:88:d5:ac:46:a2:08:17:7e:b8:26:1f:7c:a1:
         46:53:f4:5a:6c:8f:79:dc:6b:a5:7c:23:fd:30:b4:58:33:8b:
         64:44:d5:fe:dd:5e:1e:c2:17:88:4d:54:3a:a6:4a:fe:df:72:
         50:9a:76:f8
-----BEGIN CERTIFICATE-----
MIIEFjCCAv6gAwIBAgIEEAABDjANBgkqhkiG9w0BAQUFADBEMQswCQYDVQQGEwJE
RTEPMA0GA1UECAwGSGVzc2VuMRQwEgYDVQQKDAtwcml2YWN5aWRlYTEOMAwGA1UE
AwwFQ0EwMDEwHhcNMTYwNDI2MTUzOTQ3WhcNMTcwNDI2MTUzOTQ3WjBEMQ4wDAYD
VQQLEwVsb2NhbDEOMAwGA1UEAxMFY29ybnkxIjAgBgkqhkiG9w0BCQEWE2Nvcm55
QGNvcm5lbGludXguZGUwggEiMA0GCSqGSIb3DQEBAQUAA4IBDwAwggEKAoIBAQC2
c4eFJVcKb4VR37WQt1DDEVVIlDu4zqz6mYYz/oGANBa6zbgGh2FL062pM/tA91r8
lSgCt1jxsNr00u82y/VVBpo+M+9j39mFCEFx6FXdvEAPG30iKnvlTs2WTNdNBqrU
cIsjvPL3ExEez8+Cvsg0kvGokA+zyXcrssMN3oUCMbRrOihD810NBqrdUXXn0cbI
bQG+YRFYA71nTEQzsr2KqQBDTAEiwRP4RblH6zkmQgy39uVNC81LLixa56C87LXr
rVW+VDlf6ASGlNW0qXjEb0Ba4ONW8s4Phyxrd/z/t1TFu0ZHX+M5HH3liChHRTvx
dtF/f8xxx3DqT9XMo6whAgMBAAGjggEOMIIBCjALBgNVHQ8EBAMCBaAwCQYDVR0T
BAIwADARBglghkgBhvhCAQEEBAMCBkAwMwYJYIZIAYb4QgENBCYWJE9wZW5TU0wg
R2VuZXJhdGVkIFNlcnZlciBDZXJ0aWZpY2F0ZTAdBgNVHQ4EFgQUQ07DUe1LeXUu
Jb7xWOAn0bsZtFgwdAYDVR0jBG0wa4AU9KfAzJFGr2TzkfIn+Miyb4qHMnOhSKRG
MEQxCzAJBgNVBAYTAkRFMQ8wDQYDVQQIDAZIZXNzZW4xFDASBgNVBAoMC3ByaXZh
Y3lpZGVhMQ4wDAYDVQQDDAVDQTAwMYIJAPvI66yDzRIHMBMGA1UdJQQMMAoGCCsG
AQUFBwMBMA0GCSqGSIb3DQEBBQUAA4IBAQAYENoAbDNwOcO32YpUEAyWudCtqa6L
QMmRpMlXQ9Eo8+ESo2ak7tBHq6C/wsz+f9UhCiugAEMLXziwy9bsN/wnghuvzbEr
B++GSntQf6jhSKBMQ2kbQcwdJXZNMfMjiuaRbjNmKPom7o8EFH2zQoL7+FCESJIX
Nby87nBZKUN20S4DGIseTaQSZ0C5o1q44gERGMdV+f1wqGosNuJJNSTUZqZydcp3
1MH/98e79NwySGqJAIPd5Udd+f6dnqbvfD67cG9dFyfynJL4mojVrEaiCBd+uCYf
fKFGU/RabI953GulfCP9MLRYM4tkRNX+3V4ewheITVQ6pkr+33JQmnb4
-----END CERTIFICATE-----
