Certificate:
    Data:
        Version: 3 (0x2)
        Serial Number: 268435677 (0x100000dd)
    Signature Algorithm: sha256WithRSAEncryption
        Issuer: C=DE, ST=Hessen, O=privacyidea, CN=CA001
        Validity
            Not Before: Aug 30 16:01:20 2018 GMT
            Not After : Aug 30 16:01:20 2019 GMT
        Subject: CN=Steve Test/emailAddress=steve@openssl.org
        Subject Public Key Info:
            Public Key Algorithm: rsaEncryption
                Public-Key: (2048 bit)
                Modulus:
                    00:d2:81:89:20:51:48:0f:73:f4:11:32:24:d5:1f:
                    1c:fd:5c:f5:b6:e6:c5:f0:52:81:dc:d2:af:66:4a:
                    7c:93:31:61:5c:af:d1:6d:06:70:03:60:7c:72:0c:
                    88:dd:49:cd:9e:02:6c:d2:5a:d7:53:0f:f3:da:be:
                    69:64:b5:0f:0c:00:e3:b3:50:47:a3:b3:9b:ba:13:
                    50:d6:58:5a:4b:ab:39:e0:11:ca:0a:27:67:03:78:
                    22:66:6d:92:1e:1b:5c:49:ae:e6:6b:d1:8e:3b:9d:
                    06:d3:c6:ac:4d:53:43:10:ab:e8:96:c1:87:82:97:
                    99:8f:20:d3:99:12:37:31:84:e1:8a:ff:29:03:5f:
                    22:90:3e:7f:9b:e0:20:c1:ad:dc:ae:4c:39:1a:31:
                    96:17:02:8c:b2:d9:b4:0d:20:12:9b:7d:86:54:fd:
                    33:fd:c1:2a:62:46:f8:60:96:cf:6e:01:6f:22:df:
                    13:47:e7:97:ec:05:72:23:a3:62:f8:fa:ef:ac:9c:
                    72:f0:37:cb:2f:37:cf:90:a8:27:51:86:c6:d7:78:
                    08:8f:7e:25:a2:15:70:a2:fb:1c:b6:15:5e:a0:97:
                    8b:81:4c:09:28:8a:27:3b:94:bc:71:db:5b:71:37:
                    9a:2b:16:e0:6f:b5:c9:f5:4b:4f:20:ba:65:cf:af:
                    ad:ad
                Exponent: 65537 (0x10001)
        X509v3 extensions:
            X509v3 Key Usage: 
                Digital Signature, Key Encipherment
            X509v3 Basic Constraints: 
                CA:FALSE
            Netscape Cert Type: 
                SSL Server
            Netscape Comment: 
                OpenSSL Generated Server Certificate
            X509v3 Subject Key Identifier: 
                E5:25:6D:3E:AF:0D:DD:3F:4C:F2:45:19:39:D5:14:DB:7E:9C:C0:AD
            X509v3 Authority Key Identifier: 
                keyid:F4:A7:C0:CC:91:46:AF:64:F3:91:F2:27:F8:C8:B2:6F:8A:87:32:73
                DirName:/C=DE/ST=Hessen/O=privacyidea/CN=CA001
                serial:FB:C8:EB:AC:83:CD:12:07

            X509v3 Extended Key Usage: 
                TLS Web Server Authentication
    Signature Algorithm: sha256WithRSAEncryption
         6a:11:b0:83:0d:7d:99:71:7f:d8:72:66:45:0b:d5:f9:db:c7:
         f6:c1:75:ce:f9:88:3d:13:f8:8c:98:95:7d:b8:13:a0:ad:e1:
         2f:0d:d3:d8:a3:d2:8e:68:8d:37:0e:65:27:70:16:8f:f0:33:
         ec:a0:18:b1:f0:82:1d:f8:81:39:85:b1:96:ee:92:38:db:46:
         bc:bf:76:e6:35:d6:7c:1d:0a:9d:00:3f:cc:87:5c:96:99:c1:
         8c:7c:6a:2a:f2:60:4c:0f:c1:16:1c:68:98:78:67:a7:40:b3:
         84:fb:fb:c0:e2:c7:10:e8:d0:a8:63:5b:2e:03:3a:b6:56:91:
         cd:f4:4f:4d:9e:8c:27:38:6d:82:94:b6:ce:43:1a:e0:49:7d:
         69:28:94:15:40:bc:b6:17:16:a3:8d:18:32:ca:1d:a6:e8:be:
         0d:61:f6:d4:ba:5d:8f:63:32:77:29:b3:3d:71:9e:f2:2f:83:
         97:97:cb:3c:4b:9f:19:01:41:fb:15:4b:09:e8:c3:9d:11:c3:
         a9:e7:cb:57:de:c6:bb:c6:8f:e4:69:27:7e:6e:55:90:ae:bc:
         26:dd:cf:28:67:31:c9:c2:8c:1c:fc:74:81:3e:85:7c:a0:3f:
         ed:3c:a9:e1:06:eb:79:6e:d3:d0:15:8f:f9:3a:9e:5e:ca:fb:
         9a:9a:e5:d2
-----BEGIN CERTIFICATE-----
MIIECTCCAvGgAwIBAgIEEAAA3TANBgkqhkiG9w0BAQsFADBEMQswCQYDVQQGEwJE
RTEPMA0GA1UECAwGSGVzc2VuMRQwEgYDVQQKDAtwcml2YWN5aWRlYTEOMAwGA1UE
AwwFQ0EwMDEwHhcNMTgwODMwMTYwMTIwWhcNMTkwODMwMTYwMTIwWjA3MRMwEQYD
VQQDDApTdGV2ZSBUZXN0MSAwHgYJKoZIhvcNAQkBFhFzdGV2ZUBvcGVuc3NsLm9y
ZzCCASIwDQYJKoZIhvcNAQEBBQADggEPADCCAQoCggEBANKBiSBRSA9z9BEyJNUf
HP1c9bbmxfBSgdzSr2ZKfJMxYVyv0W0GcANgfHIMiN1JzZ4CbNJa11MP89q+aWS1
DwwA47NQR6Ozm7oTUNZYWkurOeARygonZwN4ImZtkh4bXEmu5mvRjjudBtPGrE1T
QxCr6JbBh4KXmY8g05kSNzGE4Yr/KQNfIpA+f5vgIMGt3K5MORoxlhcCjLLZtA0g
Ept9hlT9M/3BKmJG+GCWz24BbyLfE0fnl+wFciOjYvj676yccvA3yy83z5CoJ1GG
xtd4CI9+JaIVcKL7HLYVXqCXi4FMCSiKJzuUvHHbW3E3misW4G+1yfVLTyC6Zc+v
ra0CAwEAAaOCAQ4wggEKMAsGA1UdDwQEAwIFoDAJBgNVHRMEAjAAMBEGCWCGSAGG
+EIBAQQEAwIGQDAzBglghkgBhvhCAQ0EJhYkT3BlblNTTCBHZW5lcmF0ZWQgU2Vy
dmVyIENlcnRpZmljYXRlMB0GA1UdDgQWBBTlJW0+rw3dP0zyRRk51RTbfpzArTB0
BgNVHSMEbTBrgBT0p8DMkUavZPOR8if4yLJviocyc6FIpEYwRDELMAkGA1UEBhMC
REUxDzANBgNVBAgMBkhlc3NlbjEUMBIGA1UECgwLcHJpdmFjeWlkZWExDjAMBgNV
BAMMBUNBMDAxggkA+8jrrIPNEgcwEwYDVR0lBAwwCgYIKwYBBQUHAwEwDQYJKoZI
hvcNAQELBQADggEBAGoRsIMNfZlxf9hyZkUL1fnbx/bBdc75iD0T+IyYlX24E6Ct
4S8N09ij0o5ojTcOZSdwFo/wM+ygGLHwgh34gTmFsZbukjjbRry/duY11nwdCp0A
P8yHXJaZwYx8airyYEwPwRYcaJh4Z6dAs4T7+8DixxDo0KhjWy4DOrZWkc30T02e
jCc4bYKUts5DGuBJfWkolBVAvLYXFqONGDLKHabovg1h9tS6XY9jMncpsz1xnvIv
g5eXyzxLnxkBQfsVSwnow50Rw6nny1fexrvGj+RpJ35uVZCuvCbdzyhnMcnCjBz8
dIE+hXygP+08qeEG63lu09AVj/k6nl7K+5qa5dI=
-----END CERTIFICATE-----
