Certificate:
    Data:
        Version: 3 (0x2)
        Serial Number: 268435671 (0x100000d7)
    Signature Algorithm: sha256WithRSAEncryption
        Issuer: C=DE, ST=Hessen, O=privacyidea, CN=CA001
        Validity
            Not Before: Oct 22 07:01:48 2018 GMT
            Not After : Oct 22 07:01:48 2019 GMT
        Subject: CN=selfservice,CN=user,O=realm1/emailAddress=meine
        Subject Public Key Info:
            Public Key Algorithm: rsaEncryption
                Public-Key: (2048 bit)
                Modulus:
                    00:cf:3c:d4:33:0e:12:c4:e6:da:cd:b6:56:a1:1c:
                    26:bb:26:1c:8a:4a:73:a8:58:8a:b6:1e:b3:8b:99:
                    d2:1d:07:c2:92:89:79:c0:69:d8:c8:df:28:61:98:
                    1e:b3:fe:ae:2b:bd:78:a9:f7:6e:47:dc:a3:a0:16:
                    8c:85:02:c1:4e:92:fd:72:6e:f0:c8:03:29:9b:b8:
                    00:6e:c0:83:95:c8:34:20:36:9c:b3:e5:e4:e6:76:
                    73:a3:1a:ad:40:96:e0:53:54:00:ec:76:79:9a:c6:
                    0d:7e:b6:bd:29:ec:83:f3:cb:89:a4:cb:6c:00:ba:
                    0c:c5:78:0f:ff:69:b8:94:f4:04:70:43:3f:d8:9e:
                    d7:a7:fb:5d:ce:75:8e:da:e7:c4:07:b1:9d:de:6f:
                    88:4b:b6:4d:9a:cf:f9:bc:fa:9f:cd:32:6d:f6:3a:
                    0b:0d:23:42:78:ec:97:42:bf:0e:4d:60:56:e1:d3:
                    02:f2:19:cb:84:57:90:e5:70:a1:a2:83:35:86:e2:
                    da:86:9f:f9:8a:c4:79:b3:52:28:da:cb:bb:34:ca:
                    d3:da:91:4a:cf:8d:76:a2:b2:6b:9b:f9:96:fd:09:
                    2a:da:11:23:4d:f0:cb:d6:b2:b1:0e:12:6c:9a:19:
                    65:98:87:ca:e4:ee:24:ce:44:ac:90:8f:9d:1b:c5:
                    2a:9d
                Exponent: 65537 (0x10001)
        X509v3 extensions:
            X509v3 Key Usage: 
                Digital Signature, Key Encipherment
            X509v3 Basic Constraints: 
                CA:FALSE
            Netscape Cert Type: 
                SSL Server
            Netscape Comment: 
                OpenSSL Generated Server Certificate
            X509v3 Subject Key Identifier: 
                4D:07:90:AD:FF:1D:0D:E7:1A:DD:D6:2E:FA:BA:34:CB:AA:1F:24:C6
            X509v3 Authority Key Identifier: 
                keyid:F4:A7:C0:CC:91:46:AF:64:F3:91:F2:27:F8:C8:B2:6F:8A:87:32:73
                DirName:/C=DE/ST=Hessen/O=privacyidea/CN=CA001
                serial:FB:C8:EB:AC:83:CD:12:07

            X509v3 Extended Key Usage: 
                TLS Web Server Authentication
    Signature Algorithm: sha256WithRSAEncryption
         26:41:04:40:d3:fb:1e:18:9e:7c:bd:46:be:4e:64:fa:d2:18:
         f4:25:1c:5c:03:b5:98:47:5a:0c:f6:10:0e:aa:1b:6c:5e:63:
         82:27:48:f3:d1:7c:82:3d:c7:f3:55:89:fe:82:15:21:b3:fa:
         14:8e:fb:7d:1b:c9:85:f8:17:c3:72:d2:52:7d:b6:3e:5d:78:
         93:2d:32:73:55:8b:f9:af:1c:3f:b7:e0:f6:c3:38:b9:27:85:
         83:8a:bd:49:ef:c8:29:66:ce:16:46:d6:e3:5c:4e:4f:0a:56:
         28:f5:30:00:3b:3f:ae:e0:11:ef:37:48:bf:d3:5e:71:ca:42:
         f5:41:d1:f4:01:f0:98:f6:5a:39:08:ee:e3:5c:bc:00:91:1f:
         df:3b:ca:54:97:f2:87:6b:ce:28:c0:c5:aa:83:e5:61:9b:6c:
         c2:6f:89:8b:ac:6f:8d:cf:89:eb:8f:d1:11:60:a6:0c:4b:f8:
         24:65:45:9f:79:1d:9c:5b:9b:1f:43:9d:e6:90:6b:a2:a9:8c:
         bb:a3:be:8c:16:77:dc:bb:de:7b:2c:6f:d8:3f:0d:f9:54:a4:
         bf:38:2e:39:a0:87:7b:d3:0e:28:dd:37:dc:ba:e9:3e:ef:e1:
         aa:6b:7f:b4:0c:91:98:36:45:c2:23:ec:10:25:48:0c:7b:33:
         a8:c0:93:5f
-----BEGIN CERTIFICATE-----
MIIEDzCCAvegAwIBAgIEEAAA1zANBgkqhkiG9w0BAQsFADBEMQswCQYDVQQGEwJE
RTEPMA0GA1UECAwGSGVzc2VuMRQwEgYDVQQKDAtwcml2YWN5aWRlYTEOMAwGA1UE
AwwFQ0EwMDEwHhcNMTgxMDIyMDcwMTQ4WhcNMTkxMDIyMDcwMTQ4WjA9MSUwIwYD
VQQDDBxzZWxmc2VydmljZSxDTj11c2VyLE89cmVhbG0xMRQwEgYJKoZIhvcNAQkB
FgVtZWluZTCCASIwDQYJKoZIhvcNAQEBBQADggEPADCCAQoCggEBAM881DMOEsTm
2s22VqEcJrsmHIpKc6hYirYes4uZ0h0HwpKJecBp2MjfKGGYHrP+riu9eKn3bkfc
o6AWjIUCwU6S/XJu8MgDKZu4AG7Ag5XINCA2nLPl5OZ2c6MarUCW4FNUAOx2eZrG
DX62vSnsg/PLiaTLbAC6DMV4D/9puJT0BHBDP9ie16f7Xc51jtrnxAexnd5viEu2
TZrP+bz6n80ybfY6Cw0jQnjsl0K/Dk1gVuHTAvIZy4RXkOVwoaKDNYbi2oaf+YrE
ebNSKNrLuzTK09qRSs+NdqKya5v5lv0JKtoRI03wy9aysQ4SbJoZZZiHyuTuJM5E
rJCPnRvFKp0CAwEAAaOCAQ4wggEKMAsGA1UdDwQEAwIFoDAJBgNVHRMEAjAAMBEG
CWCGSAGG+EIBAQQEAwIGQDAzBglghkgBhvhCAQ0EJhYkT3BlblNTTCBHZW5lcmF0
ZWQgU2VydmVyIENlcnRpZmljYXRlMB0GA1UdDgQWBBRNB5Ct/x0N5xrd1i76ujTL
qh8kxjB0BgNVHSMEbTBrgBT0p8DMkUavZPOR8if4yLJviocyc6FIpEYwRDELMAkG
A1UEBhMCREUxDzANBgNVBAgMBkhlc3NlbjEUMBIGA1UECgwLcHJpdmFjeWlkZWEx
DjAMBgNVBAMMBUNBMDAxggkA+8jrrIPNEgcwEwYDVR0lBAwwCgYIKwYBBQUHAwEw
DQYJKoZIhvcNAQELBQADggEBACZBBEDT+x4Ynny9Rr5OZPrSGPQlHFwDtZhHWgz2
EA6qG2xeY4InSPPRfII9x/NVif6CFSGz+hSO+30byYX4F8Ny0lJ9tj5deJMtMnNV
i/mvHD+34PbDOLknhYOKvUnvyClmzhZG1uNcTk8KVij1MAA7P67gEe83SL/TXnHK
QvVB0fQB8Jj2WjkI7uNcvACRH987ylSX8odrzijAxaqD5WGbbMJviYusb43PieuP
0RFgpgxL+CRlRZ95HZxbmx9DneaQa6KpjLujvowWd9y73nssb9g/DflUpL84Ljmg
h3vTDijdN9y66T7v4aprf7QMkZg2RcIj7BAlSAx7M6jAk18=
-----END CERTIFICATE-----
