Certificate:
    Data:
        Version: 3 (0x2)
        Serial Number: 268435692 (0x100000ec)
    Signature Algorithm: sha256WithRSAEncryption
        Issuer: C=DE, ST=Hessen, O=privacyidea, CN=CA001
        Validity
            Not Before: Apr 27 16:15:23 2017 GMT
            Not After : Apr 27 16:15:23 2018 GMT
        Subject: CN=Steve Test/emailAddress=steve@openssl.org
        Subject Public Key Info:
            Public Key Algorithm: rsaEncryption
                Public-Key: (2048 bit)
                Modulus:
                    00:d2:81:89:20:51:48:0f:73:f4:11:32:24:d5:1f:
                    1c:fd:5c:f5:b6:e6:c5:f0:52:81:dc:d2:af:66:4a:
                    7c:93:31:61:5c:af:d1:6d:06:70:03:60:7c:72:0c:
                    88:dd:49:cd:9e:02:6c:d2:5a:d7:53:0f:f3:da:be:
                    69:64:b5:0f:0c:00:e3:b3:50:47:a3:b3:9b:ba:13:
                    50:d6:58:5a:4b:ab:39:e0:11:ca:0a:27:67:03:78:
                    22:66:6d:92:1e:1b:5c:49:ae:e6:6b:d1:8e:3b:9d:
                    06:d3:c6:ac:4d:53:43:10:ab:e8:96:c1:87:82:97:
                    99:8f:20:d3:99:12:37:31:84:e1:8a:ff:29:03:5f:
                    22:90:3e:7f:9b:e0:20:c1:ad:dc:ae:4c:39:1a:31:
                    96:17:02:8c:b2:d9:b4:0d:20:12:9b:7d:86:54:fd:
                    33:fd:c1:2a:62:46:f8:60:96:cf:6e:01:6f:22:df:
                    13:47:e7:97:ec:05:72:23:a3:62:f8:fa:ef:ac:9c:
                    72:f0:37:cb:2f:37:cf:90:a8:27:51:86:c6:d7:78:
                    08:8f:7e:25:a2:15:70:a2:fb:1c:b6:15:5e:a0:97:
                    8b:81:4c:09:28:8a:27:3b:94:bc:71:db:5b:71:37:
                    9a:2b:16:e0:6f:b5:c9:f5:4b:4f:20:ba:65:cf:af:
                    ad:ad
                Exponent: 65537 (0x10001)
        X509v3 extensions:
            X509v3 Key Usage: 
                Digital Signature, Key Encipherment
            X509v3 Basic Constraints: 
                CA:FALSE
            Netscape Cert Type: 
                SSL Server
            Netscape Comment: 
                OpenSSL Generated Server Certificate
            X509v3 Subject Key Identifier: 
                E5:25:6D:3E:AF:0D:DD:3F:4C:F2:45:19:39:D5:14:DB:7E:9C:C0:AD
            X509v3 Authority Key Identifier: 
                keyid:F4:A7:C0:CC:91:46:AF:64:F3:91:F2:27:F8:C8:B2:6F:8A:87:32:73
                DirName:/C=DE/ST=Hessen/O=privacyidea/CN=CA001
                serial:FB:C8:EB:AC:83:CD:12:07

            X509v3 Extended Key Usage: 
                TLS Web Server Authentication
    Signature Algorithm: sha256WithRSAEncryption
         b9:17:69:97:09:d2:f8:ec:c2:7a:1e:d4:f4:b6:62:9e:7a:22:
         3a:40:18:5f:47:b3:d0:57:67:0d:c3:32:e0:54:7c:b5:96:b5:
         26:de:cf:21:31:f3:6d:c5:7f:88:85:88:b1:b6:9c:c4:6e:98:
         82:89:75:e0:5f:05:6c:d7:b1:49:58:5e:91:74:d3:01:a6:5b:
         5e:b1:30:e8:b1:81:6f:55:0e:10:97:12:e7:63:57:a7:f7:96:
         5f:cf:17:82:4b:45:44:21:41:c2:cb:7e:ba:9a:12:bc:b6:ec:
         b4:31:76:27:5a:26:2c:18:47:72:e7:5e:be:d8:3f:44:c6:e0:
         4d:0c:f5:96:29:52:6a:13:32:03:93:fb:1f:f2:7d:ca:bb:7c:
         cf:00:ab:60:3b:25:8d:f3:ca:1c:08:7f:83:a5:f2:dc:a8:97:
         1d:26:ed:ed:11:bb:4f:ab:88:d2:b6:6c:e8:46:0e:a5:f9:e4:
         7a:57:b0:7b:84:a4:e3:45:a3:72:12:49:fa:10:b2:b7:cb:af:
         68:e1:33:94:ea:33:27:50:ce:05:1d:05:ac:7e:f1:0d:b2:73:
         2e:bf:92:42:f9:b5:a2:bb:a6:4e:4e:a5:4c:d4:a2:39:0f:c6:
         bf:53:2a:a4:39:bc:37:49:a9:1a:b7:4f:e9:24:3c:7f:d9:46:
         e2:af:ef:bc
-----BEGIN CERTIFICATE-----
MIIECTCCAvGgAwIBAgIEEAAA7DANBgkqhkiG9w0BAQsFADBEMQswCQYDVQQGEwJE
RTEPMA0GA1UECAwGSGVzc2VuMRQwEgYDVQQKDAtwcml2YWN5aWRlYTEOMAwGA1UE
AwwFQ0EwMDEwHhcNMTcwNDI3MTYxNTIzWhcNMTgwNDI3MTYxNTIzWjA3MRMwEQYD
VQQDDApTdGV2ZSBUZXN0MSAwHgYJKoZIhvcNAQkBFhFzdGV2ZUBvcGVuc3NsLm9y
ZzCCASIwDQYJKoZIhvcNAQEBBQADggEPADCCAQoCggEBANKBiSBRSA9z9BEyJNUf
HP1c9bbmxfBSgdzSr2ZKfJMxYVyv0W0GcANgfHIMiN1JzZ4CbNJa11MP89q+aWS1
DwwA47NQR6Ozm7oTUNZYWkurOeARygonZwN4ImZtkh4bXEmu5mvRjjudBtPGrE1T
QxCr6JbBh4KXmY8g05kSNzGE4Yr/KQNfIpA+f5vgIMGt3K5MORoxlhcCjLLZtA0g
Ept9hlT9M/3BKmJG+GCWz24BbyLfE0fnl+wFciOjYvj676yccvA3yy83z5CoJ1GG
xtd4CI9+JaIVcKL7HLYVXqCXi4FMCSiKJzuUvHHbW3E3misW4G+1yfVLTyC6Zc+v
ra0CAwEAAaOCAQ4wggEKMAsGA1UdDwQEAwIFoDAJBgNVHRMEAjAAMBEGCWCGSAGG
+EIBAQQEAwIGQDAzBglghkgBhvhCAQ0EJhYkT3BlblNTTCBHZW5lcmF0ZWQgU2Vy
dmVyIENlcnRpZmljYXRlMB0GA1UdDgQWBBTlJW0+rw3dP0zyRRk51RTbfpzArTB0
BgNVHSMEbTBrgBT0p8DMkUavZPOR8if4yLJviocyc6FIpEYwRDELMAkGA1UEBhMC
REUxDzANBgNVBAgMBkhlc3NlbjEUMBIGA1UECgwLcHJpdmFjeWlkZWExDjAMBgNV
BAMMBUNBMDAxggkA+8jrrIPNEgcwEwYDVR0lBAwwCgYIKwYBBQUHAwEwDQYJKoZI
hvcNAQELBQADggEBALkXaZcJ0vjswnoe1PS2Yp56IjpAGF9Hs9BXZw3DMuBUfLWW
tSbezyEx823Ff4iFiLG2nMRumIKJdeBfBWzXsUlYXpF00wGmW16xMOixgW9VDhCX
EudjV6f3ll/PF4JLRUQhQcLLfrqaEry27LQxdidaJiwYR3LnXr7YP0TG4E0M9ZYp
UmoTMgOT+x/yfcq7fM8Aq2A7JY3zyhwIf4Ol8tyolx0m7e0Ru0+riNK2bOhGDqX5
5HpXsHuEpONFo3ISSfoQsrfLr2jhM5TqMydQzgUdBax+8Q2ycy6/kkL5taK7pk5O
pUzUojkPxr9TKqQ5vDdJqRq3T+kkPH/ZRuKv77w=
-----END CERTIFICATE-----
