Certificate:
    Data:
        Version: 3 (0x2)
        Serial Number: 268435698 (0x100000f2)
    Signature Algorithm: sha1WithRSAEncryption
        Issuer: C=DE, ST=Hessen, O=privacyidea, CN=CA001
        Validity
            Not Before: Feb 23 15:35:06 2017 GMT
            Not After : Feb 23 15:35:06 2018 GMT
        Subject: C=DE, ST=Hessen, O=privacyidea, CN=usercert
        Subject Public Key Info:
            Public Key Algorithm: rsaEncryption
                Public-Key: (2048 bit)
                Modulus:
                    00:dc:2f:d1:5f:29:97:d4:7c:c3:53:c8:30:bd:4b:
                    67:70:2c:24:6b:b8:5e:eb:21:7a:48:12:56:7c:81:
                    5c:48:75:b6:68:eb:f6:f2:98:4e:50:51:d1:7f:6c:
                    73:f3:0a:a7:ae:be:48:5e:e5:d6:e1:d9:2a:7c:32:
                    6e:4e:fd:08:f6:5a:54:49:23:73:c3:b9:07:18:d1:
                    ef:b3:ac:f8:8a:dc:94:96:a4:90:3a:8e:74:df:e6:
                    0d:37:1b:bd:5b:b7:25:1a:56:39:da:6f:91:aa:5e:
                    1c:74:f3:f9:7c:14:01:83:12:65:76:c7:bb:fe:36:
                    5b:95:e9:72:65:83:ed:3e:98:30:71:fa:87:dd:a3:
                    36:5a:30:03:2e:26:e0:61:d1:bf:02:3f:b6:06:1f:
                    4a:89:28:1c:5c:a2:ff:4e:be:94:e6:8c:e0:da:82:
                    f1:9d:29:32:48:30:73:b4:04:f6:42:1e:be:f7:e2:
                    32:32:27:3c:9d:89:2f:70:3e:85:9a:6f:5c:c5:09:
                    c0:8c:32:2f:72:22:c9:d2:95:1f:b6:ac:72:60:72:
                    b7:82:4d:6b:ce:5b:e3:00:d0:d2:2f:58:c6:e0:10:
                    e5:51:ca:4d:3b:2e:e6:7e:ab:84:d6:56:f1:93:35:
                    a0:93:64:26:81:75:2f:91:b5:16:06:38:0b:db:cc:
                    2d:07
                Exponent: 65537 (0x10001)
        X509v3 extensions:
            X509v3 Key Usage: 
                Digital Signature, Key Encipherment
            X509v3 Basic Constraints: 
                CA:FALSE
            Netscape Cert Type: 
                SSL Server
            Netscape Comment: 
                OpenSSL Generated Server Certificate
            X509v3 Subject Key Identifier: 
                FC:14:D1:F0:4B:8D:00:90:F2:F5:B8:71:9E:4E:97:C3:92:54:AD:0B
            X509v3 Authority Key Identifier: 
                keyid:F4:A7:C0:CC:91:46:AF:64:F3:91:F2:27:F8:C8:B2:6F:8A:87:32:73
                DirName:/C=DE/ST=Hessen/O=privacyidea/CN=CA001
                serial:FB:C8:EB:AC:83:CD:12:07

            X509v3 Extended Key Usage: 
                TLS Web Server Authentication
    Signature Algorithm: sha1WithRSAEncryption
         7f:16:3f:c1:f4:66:5c:61:12:44:be:4f:1a:04:e6:4b:6b:ea:
         1a:a5:24:d7:8d:d6:42:82:88:04:b1:60:8e:13:b0:47:b8:2a:
         ef:3a:d8:d8:45:b4:35:fb:4b:f1:d1:70:3b:b9:36:e2:dd:e4:
         cb:cf:8b:2f:db:ed:29:a4:88:6a:0d:28:bf:31:03:0b:17:75:
         29:ef:98:54:f9:24:91:1c:b2:f6:75:91:1f:f9:c5:ac:18:20:
         c9:37:51:51:aa:d7:d7:98:ca:e1:fd:45:c0:ee:8d:83:9d:dc:
         85:e4:3c:97:b2:5d:d9:40:34:60:32:fb:8e:e4:a3:12:52:44:
         c1:5a:e0:1f:24:eb:40:54:f7:a5:c1:17:5d:36:7d:9d:84:16:
         79:40:84:29:97:1b:d8:b3:d5:0e:6d:d6:ce:11:65:1f:25:aa:
         88:44:b1:50:17:8f:97:c8:97:3d:15:ba:8e:60:eb:c2:12:c5:
         18:41:5e:69:79:7e:7f:4f:a2:ca:53:41:f1:67:79:15:c5:9b:
         36:e8:18:f6:c9:e6:1b:c4:da:58:48:54:aa:35:82:34:8d:0c:
         e2:01:a3:91:40:65:46:e6:5e:be:6a:05:e8:2e:b8:7f:cb:86:
         d7:e4:93:3f:bc:13:40:57:51:4d:d0:d8:a8:5a:f8:4b:d2:02:
         88:9b:46:92
-----BEGIN CERTIFICATE-----
MIIEGTCCAwGgAwIBAgIEEAAA8jANBgkqhkiG9w0BAQUFADBEMQswCQYDVQQGEwJE
RTEPMA0GA1UECAwGSGVzc2VuMRQwEgYDVQQKDAtwcml2YWN5aWRlYTEOMAwGA1UE
AwwFQ0EwMDEwHhcNMTcwMjIzMTUzNTA2WhcNMTgwMjIzMTUzNTA2WjBHMQswCQYD
VQQGEwJERTEPMA0GA1UECAwGSGVzc2VuMRQwEgYDVQQKDAtwcml2YWN5aWRlYTER
MA8GA1UEAwwIdXNlcmNlcnQwggEiMA0GCSqGSIb3DQEBAQUAA4IBDwAwggEKAoIB
AQDcL9FfKZfUfMNTyDC9S2dwLCRruF7rIXpIElZ8gVxIdbZo6/bymE5QUdF/bHPz
Cqeuvkhe5dbh2Sp8Mm5O/Qj2WlRJI3PDuQcY0e+zrPiK3JSWpJA6jnTf5g03G71b
tyUaVjnab5GqXhx08/l8FAGDEmV2x7v+NluV6XJlg+0+mDBx+ofdozZaMAMuJuBh
0b8CP7YGH0qJKBxcov9OvpTmjODagvGdKTJIMHO0BPZCHr734jIyJzydiS9wPoWa
b1zFCcCMMi9yIsnSlR+2rHJgcreCTWvOW+MA0NIvWMbgEOVRyk07LuZ+q4TWVvGT
NaCTZCaBdS+RtRYGOAvbzC0HAgMBAAGjggEOMIIBCjALBgNVHQ8EBAMCBaAwCQYD
VR0TBAIwADARBglghkgBhvhCAQEEBAMCBkAwMwYJYIZIAYb4QgENBCYWJE9wZW5T
U0wgR2VuZXJhdGVkIFNlcnZlciBDZXJ0aWZpY2F0ZTAdBgNVHQ4EFgQU/BTR8EuN
AJDy9bhxnk6Xw5JUrQswdAYDVR0jBG0wa4AU9KfAzJFGr2TzkfIn+Miyb4qHMnOh
SKRGMEQxCzAJBgNVBAYTAkRFMQ8wDQYDVQQIDAZIZXNzZW4xFDASBgNVBAoMC3By
aXZhY3lpZGVhMQ4wDAYDVQQDDAVDQTAwMYIJAPvI66yDzRIHMBMGA1UdJQQMMAoG
CCsGAQUFBwMBMA0GCSqGSIb3DQEBBQUAA4IBAQB/Fj/B9GZcYRJEvk8aBOZLa+oa
pSTXjdZCgogEsWCOE7BHuCrvOtjYRbQ1+0vx0XA7uTbi3eTLz4sv2+0ppIhqDSi/
MQMLF3Up75hU+SSRHLL2dZEf+cWsGCDJN1FRqtfXmMrh/UXA7o2DndyF5DyXsl3Z
QDRgMvuO5KMSUkTBWuAfJOtAVPelwRddNn2dhBZ5QIQplxvYs9UObdbOEWUfJaqI
RLFQF4+XyJc9FbqOYOvCEsUYQV5peX5/T6LKU0HxZ3kVxZs26Bj2yeYbxNpYSFSq
NYI0jQziAaORQGVG5l6+agXoLrh/y4bX5JM/vBNAV1FN0NioWvhL0gKIm0aS
-----END CERTIFICATE-----
