Certificate:
    Data:
        Version: 3 (0x2)
        Serial Number: 268435670 (0x100000d6)
    Signature Algorithm: sha256WithRSAEncryption
        Issuer: C=DE, ST=Hessen, O=privacyidea, CN=CA001
        Validity
            Not Before: Oct 22 06:47:07 2018 GMT
            Not After : Oct 22 06:47:07 2019 GMT
        Subject: OU=realm1, CN=cornelius/emailAddress=user@localhost.localdomain
        Subject Public Key Info:
            Public Key Algorithm: rsaEncryption
                Public-Key: (2048 bit)
                Modulus:
                    00:f4:05:8e:7f:52:00:5a:ec:aa:37:26:13:e0:12:
                    fd:7c:47:d4:86:fc:4e:23:1f:7d:66:cb:ac:e7:23:
                    0a:b4:d3:9a:0b:06:a8:d6:96:b5:b5:f4:95:6f:2d:
                    82:64:d5:28:ac:8b:38:cd:e6:2e:56:f1:8c:8e:87:
                    c9:13:e0:fc:9e:45:1a:1d:0c:68:5d:f3:bc:de:ad:
                    f7:a5:02:8d:0a:ed:87:35:67:39:72:9b:92:3b:c5:
                    ad:6c:54:4d:62:76:22:6c:18:15:f6:cb:65:00:9c:
                    a0:75:92:9b:fe:df:d5:92:ce:f7:e8:4a:ea:ee:d5:
                    81:0f:84:15:4e:33:91:56:8d:d4:c3:3b:93:51:2a:
                    48:90:9f:94:62:9d:97:d7:06:10:03:72:67:4c:97:
                    c0:19:67:b0:5b:64:a1:69:3c:da:d3:0d:82:db:d8:
                    61:ca:b0:db:a4:b6:e9:4e:5f:b9:0d:69:24:65:1c:
                    6d:4a:fd:b9:78:86:56:82:d9:2e:18:29:c3:2e:96:
                    93:c2:28:76:8a:f2:67:95:0f:fc:24:f2:7e:21:9e:
                    07:e6:3d:91:f8:8a:12:06:e3:50:ac:59:53:62:f2:
                    bd:2b:21:b5:eb:98:81:02:23:17:57:3a:c6:09:23:
                    2b:d3:6c:fb:0e:1e:09:be:9b:ca:a9:48:ec:65:8a:
                    7d:15
                Exponent: 65537 (0x10001)
        X509v3 extensions:
            X509v3 Key Usage: 
                Digital Signature, Key Encipherment
            X509v3 Basic Constraints: 
                CA:FALSE
            Netscape Cert Type: 
                SSL Server
            Netscape Comment: 
                OpenSSL Generated Server Certificate
            X509v3 Subject Key Identifier: 
                AD:97:B0:8C:9E:7D:93:1B:E5:4B:8B:DA:11:E9:A7:3F:10:01:9E:21
            X509v3 Authority Key Identifier: 
                keyid:F4:A7:C0:CC:91:46:AF:64:F3:91:F2:27:F8:C8:B2:6F:8A:87:32:73
                DirName:/C=DE/ST=Hessen/O=privacyidea/CN=CA001
                serial:FB:C8:EB:AC:83:CD:12:07

            X509v3 Extended Key Usage: 
                TLS Web Server Authentication
    Signature Algorithm: sha256WithRSAEncryption
         88:fc:8d:85:c0:45:1e:70:8d:84:c8:a5:65:29:7c:47:0f:22:
         58:c0:6d:ca:c6:56:64:5c:40:b0:0f:3b:c0:1f:4b:66:39:a0:
         65:15:46:5f:d7:ca:7e:2f:68:b6:b3:14:e6:ae:42:1f:9a:25:
         70:86:43:0a:f5:2f:f7:66:de:2e:b6:ae:9e:8c:d7:c8:2b:10:
         8a:c7:0f:f2:9f:18:9f:8f:20:6b:e8:06:45:59:ff:ae:a8:e8:
         d9:1a:ef:57:15:2d:c2:fd:f7:15:1f:f2:07:26:3d:50:d7:33:
         f4:34:c6:34:3b:21:ec:a3:4b:55:44:d3:00:f7:a4:ab:bb:fc:
         ce:25:85:d2:99:e1:3b:84:b0:16:0c:ed:cf:cb:15:4c:52:be:
         0d:43:4e:c0:82:a8:1f:12:d4:34:71:4a:e9:73:ce:d2:b0:63:
         84:f2:29:a1:83:80:3c:82:a6:f4:11:70:e9:a4:89:d8:c8:d8:
         77:8c:2b:3e:10:48:9c:92:79:0d:09:7d:b0:b6:39:0f:22:60:
         1d:fe:7a:4d:2f:0e:97:86:50:9b:17:82:d4:a7:22:38:4e:2f:
         13:5a:17:f7:9e:dd:bf:97:37:a1:92:a9:c5:bf:20:31:9d:7d:
         15:d6:d5:ed:2c:fa:30:0e:15:ed:1b:a2:ef:cb:6d:d3:0b:42:
         b4:df:14:fc
-----BEGIN CERTIFICATE-----
MIIEIjCCAwqgAwIBAgIEEAAA1jANBgkqhkiG9w0BAQsFADBEMQswCQYDVQQGEwJE
RTEPMA0GA1UECAwGSGVzc2VuMRQwEgYDVQQKDAtwcml2YWN5aWRlYTEOMAwGA1UE
AwwFQ0EwMDEwHhcNMTgxMDIyMDY0NzA3WhcNMTkxMDIyMDY0NzA3WjBQMQ8wDQYD
VQQLDAZyZWFsbTExEjAQBgNVBAMMCWNvcm5lbGl1czEpMCcGCSqGSIb3DQEJARYa
dXNlckBsb2NhbGhvc3QubG9jYWxkb21haW4wggEiMA0GCSqGSIb3DQEBAQUAA4IB
DwAwggEKAoIBAQD0BY5/UgBa7Ko3JhPgEv18R9SG/E4jH31my6znIwq005oLBqjW
lrW19JVvLYJk1SisizjN5i5W8YyOh8kT4PyeRRodDGhd87zerfelAo0K7Yc1Zzly
m5I7xa1sVE1idiJsGBX2y2UAnKB1kpv+39WSzvfoSuru1YEPhBVOM5FWjdTDO5NR
KkiQn5RinZfXBhADcmdMl8AZZ7BbZKFpPNrTDYLb2GHKsNuktulOX7kNaSRlHG1K
/bl4hlaC2S4YKcMulpPCKHaK8meVD/wk8n4hngfmPZH4ihIG41CsWVNi8r0rIbXr
mIECIxdXOsYJIyvTbPsOHgm+m8qpSOxlin0VAgMBAAGjggEOMIIBCjALBgNVHQ8E
BAMCBaAwCQYDVR0TBAIwADARBglghkgBhvhCAQEEBAMCBkAwMwYJYIZIAYb4QgEN
BCYWJE9wZW5TU0wgR2VuZXJhdGVkIFNlcnZlciBDZXJ0aWZpY2F0ZTAdBgNVHQ4E
FgQUrZewjJ59kxvlS4vaEemnPxABniEwdAYDVR0jBG0wa4AU9KfAzJFGr2TzkfIn
+Miyb4qHMnOhSKRGMEQxCzAJBgNVBAYTAkRFMQ8wDQYDVQQIDAZIZXNzZW4xFDAS
BgNVBAoMC3ByaXZhY3lpZGVhMQ4wDAYDVQQDDAVDQTAwMYIJAPvI66yDzRIHMBMG
A1UdJQQMMAoGCCsGAQUFBwMBMA0GCSqGSIb3DQEBCwUAA4IBAQCI/I2FwEUecI2E
yKVlKXxHDyJYwG3KxlZkXECwDzvAH0tmOaBlFUZf18p+L2i2sxTmrkIfmiVwhkMK
9S/3Zt4utq6ejNfIKxCKxw/ynxifjyBr6AZFWf+uqOjZGu9XFS3C/fcVH/IHJj1Q
1zP0NMY0OyHso0tVRNMA96Sru/zOJYXSmeE7hLAWDO3PyxVMUr4NQ07AgqgfEtQ0
cUrpc87SsGOE8imhg4A8gqb0EXDppInYyNh3jCs+EEicknkNCX2wtjkPImAd/npN
Lw6XhlCbF4LUpyI4Ti8TWhf3nt2/lzehkqnFvyAxnX0V1tXtLPowDhXtG6Lvy23T
C0K03xT8
-----END CERTIFICATE-----
