Certificate:
    Data:
        Version: 3 (0x2)
        Serial Number: 268435704 (0x100000f8)
    Signature Algorithm: sha1WithRSAEncryption
        Issuer: C=DE, ST=Hessen, O=privacyidea, CN=CA001
        Validity
            Not Before: Feb 23 15:37:45 2017 GMT
            Not After : Feb 23 15:37:45 2018 GMT
        Subject: C=DE, ST=Hessen, O=privacyidea, CN=usercert
        Subject Public Key Info:
            Public Key Algorithm: rsaEncryption
                Public-Key: (2048 bit)
                Modulus:
                    00:dc:2f:d1:5f:29:97:d4:7c:c3:53:c8:30:bd:4b:
                    67:70:2c:24:6b:b8:5e:eb:21:7a:48:12:56:7c:81:
                    5c:48:75:b6:68:eb:f6:f2:98:4e:50:51:d1:7f:6c:
                    73:f3:0a:a7:ae:be:48:5e:e5:d6:e1:d9:2a:7c:32:
                    6e:4e:fd:08:f6:5a:54:49:23:73:c3:b9:07:18:d1:
                    ef:b3:ac:f8:8a:dc:94:96:a4:90:3a:8e:74:df:e6:
                    0d:37:1b:bd:5b:b7:25:1a:56:39:da:6f:91:aa:5e:
                    1c:74:f3:f9:7c:14:01:83:12:65:76:c7:bb:fe:36:
                    5b:95:e9:72:65:83:ed:3e:98:30:71:fa:87:dd:a3:
                    36:5a:30:03:2e:26:e0:61:d1:bf:02:3f:b6:06:1f:
                    4a:89:28:1c:5c:a2:ff:4e:be:94:e6:8c:e0:da:82:
                    f1:9d:29:32:48:30:73:b4:04:f6:42:1e:be:f7:e2:
                    32:32:27:3c:9d:89:2f:70:3e:85:9a:6f:5c:c5:09:
                    c0:8c:32:2f:72:22:c9:d2:95:1f:b6:ac:72:60:72:
                    b7:82:4d:6b:ce:5b:e3:00:d0:d2:2f:58:c6:e0:10:
                    e5:51:ca:4d:3b:2e:e6:7e:ab:84:d6:56:f1:93:35:
                    a0:93:64:26:81:75:2f:91:b5:16:06:38:0b:db:cc:
                    2d:07
                Exponent: 65537 (0x10001)
        X509v3 extensions:
            X509v3 Key Usage: 
                Digital Signature, Key Encipherment
            X509v3 Basic Constraints: 
                CA:FALSE
            Netscape Cert Type: 
                SSL Server
            Netscape Comment: 
                OpenSSL Generated Server Certificate
            X509v3 Subject Key Identifier: 
                FC:14:D1:F0:4B:8D:00:90:F2:F5:B8:71:9E:4E:97:C3:92:54:AD:0B
            X509v3 Authority Key Identifier: 
                keyid:F4:A7:C0:CC:91:46:AF:64:F3:91:F2:27:F8:C8:B2:6F:8A:87:32:73
                DirName:/C=DE/ST=Hessen/O=privacyidea/CN=CA001
                serial:FB:C8:EB:AC:83:CD:12:07

            X509v3 Extended Key Usage: 
                TLS Web Server Authentication
    Signature Algorithm: sha1WithRSAEncryption
         ac:37:c8:13:0f:a2:8f:cb:65:61:85:6f:ab:c0:8f:38:c9:5f:
         a4:95:c3:e0:27:93:c8:9d:16:fb:f0:2e:34:39:96:7a:1b:e2:
         09:69:94:96:bf:16:e8:19:8f:3d:df:cc:8c:39:5f:e7:58:81:
         2e:d9:37:bc:ab:2b:18:54:ec:2b:eb:c4:0f:7f:cd:86:2f:5a:
         a4:3c:65:2c:5e:16:b5:a6:64:20:84:f1:da:85:94:a8:00:5a:
         ce:60:2a:5e:55:3d:ae:36:b0:44:74:3d:a4:2d:e5:05:21:94:
         30:1f:46:ef:93:7e:8f:8b:95:e6:9f:90:7a:cf:a7:a9:ca:58:
         8f:87:15:49:74:42:bb:79:f3:f1:46:1b:98:2c:d4:08:9e:a7:
         ea:6d:52:c0:d7:b3:18:6e:f8:e5:ab:3b:a0:71:e2:32:be:b5:
         16:ae:c8:05:fc:9a:cd:8e:e9:f5:9d:1f:99:44:eb:cd:7d:c7:
         39:78:ab:b7:11:16:8f:be:a0:2a:99:dc:05:32:6d:ed:33:a5:
         4f:a4:dc:5d:34:b0:18:03:e2:76:ad:36:55:3c:10:91:a3:f7:
         f9:d9:12:1a:4e:e7:07:8d:0d:f3:cb:52:a1:c9:8f:9d:71:42:
         4b:38:7f:7e:19:e7:4c:fd:cd:26:49:b3:48:9b:5c:01:f9:1e:
         af:d3:7b:c6
-----BEGIN CERTIFICATE-----
MIIEGTCCAwGgAwIBAgIEEAAA+DANBgkqhkiG9w0BAQUFADBEMQswCQYDVQQGEwJE
RTEPMA0GA1UECAwGSGVzc2VuMRQwEgYDVQQKDAtwcml2YWN5aWRlYTEOMAwGA1UE
AwwFQ0EwMDEwHhcNMTcwMjIzMTUzNzQ1WhcNMTgwMjIzMTUzNzQ1WjBHMQswCQYD
VQQGEwJERTEPMA0GA1UECAwGSGVzc2VuMRQwEgYDVQQKDAtwcml2YWN5aWRlYTER
MA8GA1UEAwwIdXNlcmNlcnQwggEiMA0GCSqGSIb3DQEBAQUAA4IBDwAwggEKAoIB
AQDcL9FfKZfUfMNTyDC9S2dwLCRruF7rIXpIElZ8gVxIdbZo6/bymE5QUdF/bHPz
Cqeuvkhe5dbh2Sp8Mm5O/Qj2WlRJI3PDuQcY0e+zrPiK3JSWpJA6jnTf5g03G71b
tyUaVjnab5GqXhx08/l8FAGDEmV2x7v+NluV6XJlg+0+mDBx+ofdozZaMAMuJuBh
0b8CP7YGH0qJKBxcov9OvpTmjODagvGdKTJIMHO0BPZCHr734jIyJzydiS9wPoWa
b1zFCcCMMi9yIsnSlR+2rHJgcreCTWvOW+MA0NIvWMbgEOVRyk07LuZ+q4TWVvGT
NaCTZCaBdS+RtRYGOAvbzC0HAgMBAAGjggEOMIIBCjALBgNVHQ8EBAMCBaAwCQYD
VR0TBAIwADARBglghkgBhvhCAQEEBAMCBkAwMwYJYIZIAYb4QgENBCYWJE9wZW5T
U0wgR2VuZXJhdGVkIFNlcnZlciBDZXJ0aWZpY2F0ZTAdBgNVHQ4EFgQU/BTR8EuN
AJDy9bhxnk6Xw5JUrQswdAYDVR0jBG0wa4AU9KfAzJFGr2TzkfIn+Miyb4qHMnOh
SKRGMEQxCzAJBgNVBAYTAkRFMQ8wDQYDVQQIDAZIZXNzZW4xFDASBgNVBAoMC3By
aXZhY3lpZGVhMQ4wDAYDVQQDDAVDQTAwMYIJAPvI66yDzRIHMBMGA1UdJQQMMAoG
CCsGAQUFBwMBMA0GCSqGSIb3DQEBBQUAA4IBAQCsN8gTD6KPy2VhhW+rwI84yV+k
lcPgJ5PInRb78C40OZZ6G+IJaZSWvxboGY8938yMOV/nWIEu2Te8qysYVOwr68QP
f82GL1qkPGUsXha1pmQghPHahZSoAFrOYCpeVT2uNrBEdD2kLeUFIZQwH0bvk36P
i5Xmn5B6z6epyliPhxVJdEK7efPxRhuYLNQInqfqbVLA17MYbvjlqzugceIyvrUW
rsgF/JrNjun1nR+ZROvNfcc5eKu3ERaPvqAqmdwFMm3tM6VPpNxdNLAYA+J2rTZV
PBCRo/f52RIaTucHjQ3zy1KhyY+dcUJLOH9+GedM/c0mSbNIm1wB+R6v03vG
-----END CERTIFICATE-----
