Certificate:
    Data:
        Version: 3 (0x2)
        Serial Number: 268435686 (0x100000e6)
    Signature Algorithm: sha256WithRSAEncryption
        Issuer: C=DE, ST=Hessen, O=privacyidea, CN=CA001
        Validity
            Not Before: Jun  2 05:23:24 2018 GMT
            Not After : Jun  2 05:23:24 2019 GMT
        Subject: OU=realm1, CN=cornelius/emailAddress=user@localhost.localdomain
        Subject Public Key Info:
            Public Key Algorithm: rsaEncryption
                Public-Key: (2048 bit)
                Modulus:
                    00:d2:d8:a8:e3:7b:0f:98:4d:d6:85:02:bc:86:cd:
                    ad:1b:88:f0:fe:20:b8:d0:7f:85:1c:b4:34:61:a9:
                    b8:e5:dd:f9:49:11:01:4e:a4:22:1d:9e:0b:cd:34:
                    f4:53:e6:fa:6d:6e:67:4e:f2:b1:ae:07:d9:8b:83:
                    2e:e1:d2:66:a0:c9:46:21:74:2b:e1:e6:ae:f7:bc:
                    a9:a3:48:9f:76:f5:01:0e:05:66:dc:76:9a:47:f5:
                    2c:3e:f9:3c:66:30:2d:64:81:21:e3:2e:65:f4:e0:
                    10:d1:06:a9:54:5f:18:26:9b:09:a1:61:f1:01:cd:
                    d4:93:dc:da:ab:12:18:aa:f3:9e:a7:6d:32:4b:e4:
                    3c:b3:69:74:6e:46:55:6f:f4:ab:1b:d5:12:6c:29:
                    29:60:b4:08:bb:d6:06:47:b9:50:d3:7d:94:c5:21:
                    9b:33:da:56:cb:52:99:34:c8:d5:38:63:4b:77:35:
                    ef:81:ad:eb:37:3f:be:c1:56:e8:39:1e:a5:ed:8f:
                    69:2a:3d:80:41:78:b8:fd:50:d7:15:8f:be:aa:8d:
                    d7:fb:7f:08:15:9a:f7:9e:1d:b6:20:ea:73:78:34:
                    55:52:83:fc:ac:c5:08:15:f9:34:ad:be:36:57:b8:
                    51:72:cf:c3:ab:c0:a6:92:3e:79:b2:cc:44:71:e7:
                    56:81
                Exponent: 65537 (0x10001)
        X509v3 extensions:
            X509v3 Key Usage: 
                Digital Signature, Key Encipherment
            X509v3 Basic Constraints: 
                CA:FALSE
            Netscape Cert Type: 
                SSL Server
            Netscape Comment: 
                OpenSSL Generated Server Certificate
            X509v3 Subject Key Identifier: 
                C2:3E:72:1D:BE:F2:57:A3:B9:CF:3A:A6:5B:4F:28:1B:E8:92:D0:81
            X509v3 Authority Key Identifier: 
                keyid:F4:A7:C0:CC:91:46:AF:64:F3:91:F2:27:F8:C8:B2:6F:8A:87:32:73
                DirName:/C=DE/ST=Hessen/O=privacyidea/CN=CA001
                serial:FB:C8:EB:AC:83:CD:12:07

            X509v3 Extended Key Usage: 
                TLS Web Server Authentication
    Signature Algorithm: sha256WithRSAEncryption
         44:61:4a:fe:12:2f:69:07:50:78:5a:1a:66:fa:9f:84:43:af:
         c2:32:92:62:d6:83:0a:1a:96:56:77:e4:06:ee:f9:02:e2:09:
         0f:8c:4c:e5:9e:03:aa:a8:88:37:9d:f0:91:00:2b:84:81:9f:
         db:cb:41:0e:0f:36:60:43:e0:88:a4:5c:93:2c:f0:69:75:07:
         28:c4:23:6d:b6:e6:c5:5b:93:6b:3d:45:c6:be:94:96:8b:98:
         a8:5e:d4:bb:db:b9:d7:8b:54:d7:bd:d4:e7:3e:91:c0:2d:8b:
         cc:3c:e8:e5:d7:df:2a:25:05:03:e8:1a:1a:1a:de:d8:4b:2f:
         cb:69:dc:b8:72:a6:cf:98:6b:26:2b:13:1c:a7:e3:74:21:e3:
         f2:49:34:bc:81:db:d1:99:dd:57:cb:f5:9d:2a:ab:55:ee:1a:
         63:fc:e3:30:fb:c4:0c:88:dc:d1:51:95:a9:6c:75:9d:59:52:
         b1:62:d2:4b:3d:0d:e7:f6:cb:29:79:d0:71:cd:3f:f1:ce:73:
         2e:5d:5d:ae:bd:52:e2:db:0c:70:6c:b0:cd:36:32:88:8b:76:
         42:a8:46:9a:42:39:8b:c6:69:c4:e5:bf:e9:9f:57:73:8f:c9:
         d2:78:16:57:7c:98:07:41:44:ad:8e:36:5a:30:a5:54:66:69:
         06:48:33:35
-----BEGIN CERTIFICATE-----
MIIEIjCCAwqgAwIBAgIEEAAA5jANBgkqhkiG9w0BAQsFADBEMQswCQYDVQQGEwJE
RTEPMA0GA1UECAwGSGVzc2VuMRQwEgYDVQQKDAtwcml2YWN5aWRlYTEOMAwGA1UE
AwwFQ0EwMDEwHhcNMTgwNjAyMDUyMzI0WhcNMTkwNjAyMDUyMzI0WjBQMQ8wDQYD
VQQLDAZyZWFsbTExEjAQBgNVBAMMCWNvcm5lbGl1czEpMCcGCSqGSIb3DQEJARYa
dXNlckBsb2NhbGhvc3QubG9jYWxkb21haW4wggEiMA0GCSqGSIb3DQEBAQUAA4IB
DwAwggEKAoIBAQDS2Kjjew+YTdaFAryGza0biPD+ILjQf4UctDRhqbjl3flJEQFO
pCIdngvNNPRT5vptbmdO8rGuB9mLgy7h0magyUYhdCvh5q73vKmjSJ929QEOBWbc
dppH9Sw++TxmMC1kgSHjLmX04BDRBqlUXxgmmwmhYfEBzdST3NqrEhiq856nbTJL
5DyzaXRuRlVv9Ksb1RJsKSlgtAi71gZHuVDTfZTFIZsz2lbLUpk0yNU4Y0t3Ne+B
res3P77BVug5HqXtj2kqPYBBeLj9UNcVj76qjdf7fwgVmveeHbYg6nN4NFVSg/ys
xQgV+TStvjZXuFFyz8OrwKaSPnmyzERx51aBAgMBAAGjggEOMIIBCjALBgNVHQ8E
BAMCBaAwCQYDVR0TBAIwADARBglghkgBhvhCAQEEBAMCBkAwMwYJYIZIAYb4QgEN
BCYWJE9wZW5TU0wgR2VuZXJhdGVkIFNlcnZlciBDZXJ0aWZpY2F0ZTAdBgNVHQ4E
FgQUwj5yHb7yV6O5zzqmW08oG+iS0IEwdAYDVR0jBG0wa4AU9KfAzJFGr2TzkfIn
+Miyb4qHMnOhSKRGMEQxCzAJBgNVBAYTAkRFMQ8wDQYDVQQIDAZIZXNzZW4xFDAS
BgNVBAoMC3ByaXZhY3lpZGVhMQ4wDAYDVQQDDAVDQTAwMYIJAPvI66yDzRIHMBMG
A1UdJQQMMAoGCCsGAQUFBwMBMA0GCSqGSIb3DQEBCwUAA4IBAQBEYUr+Ei9pB1B4
Whpm+p+EQ6/CMpJi1oMKGpZWd+QG7vkC4gkPjEzlngOqqIg3nfCRACuEgZ/by0EO
DzZgQ+CIpFyTLPBpdQcoxCNttubFW5NrPUXGvpSWi5ioXtS727nXi1TXvdTnPpHA
LYvMPOjl198qJQUD6BoaGt7YSy/Lady4cqbPmGsmKxMcp+N0IePySTS8gdvRmd1X
y/WdKqtV7hpj/OMw+8QMiNzRUZWpbHWdWVKxYtJLPQ3n9sspedBxzT/xznMuXV2u
vVLi2wxwbLDNNjKIi3ZCqEaaQjmLxmnE5b/pn1dzj8nSeBZXfJgHQUStjjZaMKVU
ZmkGSDM1
-----END CERTIFICATE-----
