Certificate:
    Data:
        Version: 3 (0x2)
        Serial Number: 268435691 (0x100000eb)
    Signature Algorithm: sha256WithRSAEncryption
        Issuer: C=DE, ST=Hessen, O=privacyidea, CN=CA001
        Validity
            Not Before: Apr 27 16:15:23 2017 GMT
            Not After : Apr 27 16:15:23 2018 GMT
        Subject: C=DE, ST=Hessen, O=privacyidea, CN=usercert
        Subject Public Key Info:
            Public Key Algorithm: rsaEncryption
                Public-Key: (2048 bit)
                Modulus:
                    00:dc:2f:d1:5f:29:97:d4:7c:c3:53:c8:30:bd:4b:
                    67:70:2c:24:6b:b8:5e:eb:21:7a:48:12:56:7c:81:
                    5c:48:75:b6:68:eb:f6:f2:98:4e:50:51:d1:7f:6c:
                    73:f3:0a:a7:ae:be:48:5e:e5:d6:e1:d9:2a:7c:32:
                    6e:4e:fd:08:f6:5a:54:49:23:73:c3:b9:07:18:d1:
                    ef:b3:ac:f8:8a:dc:94:96:a4:90:3a:8e:74:df:e6:
                    0d:37:1b:bd:5b:b7:25:1a:56:39:da:6f:91:aa:5e:
                    1c:74:f3:f9:7c:14:01:83:12:65:76:c7:bb:fe:36:
                    5b:95:e9:72:65:83:ed:3e:98:30:71:fa:87:dd:a3:
                    36:5a:30:03:2e:26:e0:61:d1:bf:02:3f:b6:06:1f:
                    4a:89:28:1c:5c:a2:ff:4e:be:94:e6:8c:e0:da:82:
                    f1:9d:29:32:48:30:73:b4:04:f6:42:1e:be:f7:e2:
                    32:32:27:3c:9d:89:2f:70:3e:85:9a:6f:5c:c5:09:
                    c0:8c:32:2f:72:22:c9:d2:95:1f:b6:ac:72:60:72:
                    b7:82:4d:6b:ce:5b:e3:00:d0:d2:2f:58:c6:e0:10:
                    e5:51:ca:4d:3b:2e:e6:7e:ab:84:d6:56:f1:93:35:
                    a0:93:64:26:81:75:2f:91:b5:16:06:38:0b:db:cc:
                    2d:07
                Exponent: 65537 (0x10001)
        X509v3 extensions:
            X509v3 Key Usage: 
                Digital Signature, Key Encipherment
            X509v3 Basic Constraints: 
                CA:FALSE
            Netscape Cert Type: 
                SSL Server
            Netscape Comment: 
                OpenSSL Generated Server Certificate
            X509v3 Subject Key Identifier: 
                FC:14:D1:F0:4B:8D:00:90:F2:F5:B8:71:9E:4E:97:C3:92:54:AD:0B
            X509v3 Authority Key Identifier: 
                keyid:F4:A7:C0:CC:91:46:AF:64:F3:91:F2:27:F8:C8:B2:6F:8A:87:32:73
                DirName:/C=DE/ST=Hessen/O=privacyidea/CN=CA001
                serial:FB:C8:EB:AC:83:CD:12:07

            X509v3 Extended Key Usage: 
                TLS Web Server Authentication
    Signature Algorithm: sha256WithRSAEncryption
         8c:42:47:79:51:98:90:df:ae:27:5d:ae:02:c5:b6:bb:15:ad:
         85:7c:e9:c2:7f:0c:ba:39:f1:e5:55:01:c2:7c:fe:ce:54:32:
         e6:ed:9f:bb:87:48:7c:3b:7f:b7:03:da:f4:1e:f1:bd:76:3d:
         20:29:c3:73:b7:2d:04:b3:e5:b4:55:d9:74:c1:b0:f1:08:6c:
         83:73:13:a1:98:77:0c:4a:f0:5a:7c:70:7e:02:a0:e4:20:0d:
         26:10:81:69:88:f2:2f:6f:43:ff:20:6d:52:b4:30:d0:54:76:
         28:6c:18:d1:d3:ad:91:b1:f1:01:32:70:09:db:8a:47:7c:d8:
         17:fb:69:c8:8a:a9:79:7e:21:21:45:31:d5:77:04:df:0c:e3:
         5d:ef:ee:00:c0:86:ba:0b:7f:b9:b7:52:94:dd:c4:4e:67:a6:
         35:c1:ec:6b:9f:c2:cd:04:48:81:b9:49:03:ec:68:5b:3a:e1:
         18:cb:88:b8:6a:d4:a2:9e:9b:27:6f:42:ae:fa:32:db:d7:0f:
         4c:dc:1c:db:d3:37:a9:05:ac:c0:6d:a4:08:ab:2e:e6:7c:78:
         73:f6:b3:f8:48:96:ae:a6:48:e5:fe:07:48:41:97:9d:44:a3:
         be:4b:c5:20:47:95:0d:a6:34:d1:c2:15:59:64:4a:c5:17:26:
         ab:47:90:f7
-----BEGIN CERTIFICATE-----
MIIEGTCCAwGgAwIBAgIEEAAA6zANBgkqhkiG9w0BAQsFADBEMQswCQYDVQQGEwJE
RTEPMA0GA1UECAwGSGVzc2VuMRQwEgYDVQQKDAtwcml2YWN5aWRlYTEOMAwGA1UE
AwwFQ0EwMDEwHhcNMTcwNDI3MTYxNTIzWhcNMTgwNDI3MTYxNTIzWjBHMQswCQYD
VQQGEwJERTEPMA0GA1UECAwGSGVzc2VuMRQwEgYDVQQKDAtwcml2YWN5aWRlYTER
MA8GA1UEAwwIdXNlcmNlcnQwggEiMA0GCSqGSIb3DQEBAQUAA4IBDwAwggEKAoIB
AQDcL9FfKZfUfMNTyDC9S2dwLCRruF7rIXpIElZ8gVxIdbZo6/bymE5QUdF/bHPz
Cqeuvkhe5dbh2Sp8Mm5O/Qj2WlRJI3PDuQcY0e+zrPiK3JSWpJA6jnTf5g03G71b
tyUaVjnab5GqXhx08/l8FAGDEmV2x7v+NluV6XJlg+0+mDBx+ofdozZaMAMuJuBh
0b8CP7YGH0qJKBxcov9OvpTmjODagvGdKTJIMHO0BPZCHr734jIyJzydiS9wPoWa
b1zFCcCMMi9yIsnSlR+2rHJgcreCTWvOW+MA0NIvWMbgEOVRyk07LuZ+q4TWVvGT
NaCTZCaBdS+RtRYGOAvbzC0HAgMBAAGjggEOMIIBCjALBgNVHQ8EBAMCBaAwCQYD
VR0TBAIwADARBglghkgBhvhCAQEEBAMCBkAwMwYJYIZIAYb4QgENBCYWJE9wZW5T
U0wgR2VuZXJhdGVkIFNlcnZlciBDZXJ0aWZpY2F0ZTAdBgNVHQ4EFgQU/BTR8EuN
AJDy9bhxnk6Xw5JUrQswdAYDVR0jBG0wa4AU9KfAzJFGr2TzkfIn+Miyb4qHMnOh
SKRGMEQxCzAJBgNVBAYTAkRFMQ8wDQYDVQQIDAZIZXNzZW4xFDASBgNVBAoMC3By
aXZhY3lpZGVhMQ4wDAYDVQQDDAVDQTAwMYIJAPvI66yDzRIHMBMGA1UdJQQMMAoG
CCsGAQUFBwMBMA0GCSqGSIb3DQEBCwUAA4IBAQCMQkd5UZiQ364nXa4Cxba7Fa2F
fOnCfwy6OfHlVQHCfP7OVDLm7Z+7h0h8O3+3A9r0HvG9dj0gKcNzty0Es+W0Vdl0
wbDxCGyDcxOhmHcMSvBafHB+AqDkIA0mEIFpiPIvb0P/IG1StDDQVHYobBjR062R
sfEBMnAJ24pHfNgX+2nIiql5fiEhRTHVdwTfDONd7+4AwIa6C3+5t1KU3cROZ6Y1
wexrn8LNBEiBuUkD7GhbOuEYy4i4atSinpsnb0Ku+jLb1w9M3Bzb0zepBazAbaQI
qy7mfHhz9rP4SJaupkjl/gdIQZedRKO+S8UgR5UNpjTRwhVZZErFFyarR5D3
-----END CERTIFICATE-----
