Certificate:
    Data:
        Version: 3 (0x2)
        Serial Number: 268435715 (0x10000103)
    Signature Algorithm: sha1WithRSAEncryption
        Issuer: C=DE, ST=Hessen, O=privacyidea, CN=CA001
        Validity
            Not Before: Apr 26 13:45:03 2016 GMT
            Not After : Apr 26 13:45:03 2017 GMT
        Subject: OU=local, CN=corny/emailAddress=corny@cornelinux.de
        Subject Public Key Info:
            Public Key Algorithm: rsaEncryption
                Public-Key: (2048 bit)
                Modulus:
                    00:aa:ef:3d:61:a6:f9:fc:8d:fe:4f:d0:37:72:2f:
                    99:fb:49:a8:6e:c0:54:f6:3c:94:89:97:25:7b:09:
                    32:38:a8:33:06:ad:40:cc:04:59:6d:bf:8d:d8:f6:
                    67:46:cc:78:84:ed:34:44:a1:46:9c:32:e7:97:f5:
                    e5:c0:b8:e4:26:fb:46:44:4c:3c:27:ea:1b:31:d7:
                    e9:62:65:c2:86:6e:04:1f:10:f7:fd:2c:11:e1:ce:
                    91:4d:07:53:b8:d3:77:d9:56:ab:50:49:5e:9a:f3:
                    d5:ad:7c:93:db:b8:04:e8:62:09:41:64:b9:fd:83:
                    46:d5:a3:d7:dc:19:4d:ec:d4:26:9b:f2:6a:dc:f6:
                    76:77:8f:db:96:3d:4a:a0:c1:d9:1b:2c:f7:88:a9:
                    04:26:12:6b:c5:5f:9d:b7:0a:50:f7:11:86:c3:ae:
                    ec:1d:41:e4:5c:57:4d:23:92:bd:ec:c0:1d:5e:7c:
                    22:57:6d:94:7f:d1:04:83:32:5c:ca:12:c5:27:e2:
                    89:45:11:c4:8a:b8:d7:49:a4:7d:83:eb:9f:71:71:
                    27:c3:c0:fa:7f:99:12:7d:4a:25:44:d8:41:8f:56:
                    50:bc:29:2b:3f:6c:83:31:31:96:b6:b3:8d:84:12:
                    c2:64:e7:d4:68:2e:cc:e8:f2:f4:2d:a3:fb:73:d2:
                    e3:25
                Exponent: 65537 (0x10001)
        X509v3 extensions:
            X509v3 Key Usage: 
                Digital Signature, Key Encipherment
            X509v3 Basic Constraints: 
                CA:FALSE
            Netscape Cert Type: 
                SSL Server
            Netscape Comment: 
                OpenSSL Generated Server Certificate
            X509v3 Subject Key Identifier: 
                5E:F6:E4:DC:2F:C1:1F:4E:0E:0A:D1:7E:FA:5C:52:D5:C2:C9:1A:EA
            X509v3 Authority Key Identifier: 
                keyid:F4:A7:C0:CC:91:46:AF:64:F3:91:F2:27:F8:C8:B2:6F:8A:87:32:73
                DirName:/C=DE/ST=Hessen/O=privacyidea/CN=CA001
                serial:FB:C8:EB:AC:83:CD:12:07

            X509v3 Extended Key Usage: 
                TLS Web Server Authentication
    Signature Algorithm: sha1WithRSAEncryption
         68:0d:22:4b:64:34:4a:a9:e1:ad:e0:40:d9:00:d0:9a:46:1a:
         01:4d:98:01:11:08:3d:3a:03:21:ec:ad:ad:78:8c:c1:5e:99:
         ba:4c:eb:67:4f:9e:ca:7d:ba:1a:bb:2f:68:2e:a7:72:cd:5b:
         e4:d7:13:6a:35:d9:b5:54:ad:d4:91:2f:9b:12:e7:67:5e:ac:
         db:0b:68:0d:07:21:63:e0:34:e4:b2:1c:ea:01:d1:ec:5c:81:
         58:6c:ff:9f:16:07:0e:37:13:d2:7f:e5:41:77:a1:d6:63:08:
         9c:b3:dc:e7:ad:7d:e9:7e:13:3a:1e:1f:6b:41:84:7d:a2:ed:
         60:f8:3d:a8:16:a5:9c:4d:cc:d0:d1:5b:c5:29:d7:30:a9:9c:
         9c:3d:90:1b:bd:6f:e2:3e:0f:e0:51:a5:63:c4:cb:ff:f5:3c:
         ba:f5:43:d5:fd:97:a6:b7:cc:07:a4:94:fc:f9:25:df:72:3d:
         99:b2:32:ed:47:aa:86:36:13:d7:96:3f:0c:55:f9:ca:ff:ed:
         90:c2:ba:03:b7:3f:e9:de:61:9e:c0:ef:d0:1d:2f:29:d0:1c:
         5c:80:a2:04:b8:2a:cd:a2:d8:a2:56:a2:54:e9:92:2e:97:74:
         e9:91:37:25:31:74:b9:6c:d8:f5:92:08:88:3a:cb:12:8f:2e:
         3c:87:3e:9c
-----BEGIN CERTIFICATE-----
MIIEFjCCAv6gAwIBAgIEEAABAzANBgkqhkiG9w0BAQUFADBEMQswCQYDVQQGEwJE
RTEPMA0GA1UECAwGSGVzc2VuMRQwEgYDVQQKDAtwcml2YWN5aWRlYTEOMAwGA1UE
AwwFQ0EwMDEwHhcNMTYwNDI2MTM0NTAzWhcNMTcwNDI2MTM0NTAzWjBEMQ4wDAYD
VQQLEwVsb2NhbDEOMAwGA1UEAxMFY29ybnkxIjAgBgkqhkiG9w0BCQEWE2Nvcm55
QGNvcm5lbGludXguZGUwggEiMA0GCSqGSIb3DQEBAQUAA4IBDwAwggEKAoIBAQCq
7z1hpvn8jf5P0DdyL5n7SahuwFT2PJSJlyV7CTI4qDMGrUDMBFltv43Y9mdGzHiE
7TREoUacMueX9eXAuOQm+0ZETDwn6hsx1+liZcKGbgQfEPf9LBHhzpFNB1O403fZ
VqtQSV6a89WtfJPbuAToYglBZLn9g0bVo9fcGU3s1Cab8mrc9nZ3j9uWPUqgwdkb
LPeIqQQmEmvFX523ClD3EYbDruwdQeRcV00jkr3swB1efCJXbZR/0QSDMlzKEsUn
4olFEcSKuNdJpH2D659xcSfDwPp/mRJ9SiVE2EGPVlC8KSs/bIMxMZa2s42EEsJk
59RoLszo8vQto/tz0uMlAgMBAAGjggEOMIIBCjALBgNVHQ8EBAMCBaAwCQYDVR0T
BAIwADARBglghkgBhvhCAQEEBAMCBkAwMwYJYIZIAYb4QgENBCYWJE9wZW5TU0wg
R2VuZXJhdGVkIFNlcnZlciBDZXJ0aWZpY2F0ZTAdBgNVHQ4EFgQUXvbk3C/BH04O
CtF++lxS1cLJGuowdAYDVR0jBG0wa4AU9KfAzJFGr2TzkfIn+Miyb4qHMnOhSKRG
MEQxCzAJBgNVBAYTAkRFMQ8wDQYDVQQIDAZIZXNzZW4xFDASBgNVBAoMC3ByaXZh
Y3lpZGVhMQ4wDAYDVQQDDAVDQTAwMYIJAPvI66yDzRIHMBMGA1UdJQQMMAoGCCsG
AQUFBwMBMA0GCSqGSIb3DQEBBQUAA4IBAQBoDSJLZDRKqeGt4EDZANCaRhoBTZgB
EQg9OgMh7K2teIzBXpm6TOtnT57Kfboauy9oLqdyzVvk1xNqNdm1VK3UkS+bEudn
XqzbC2gNByFj4DTkshzqAdHsXIFYbP+fFgcONxPSf+VBd6HWYwics9znrX3pfhM6
Hh9rQYR9ou1g+D2oFqWcTczQ0VvFKdcwqZycPZAbvW/iPg/gUaVjxMv/9Ty69UPV
/Zemt8wHpJT8+SXfcj2ZsjLtR6qGNhPXlj8MVfnK/+2QwroDtz/p3mGewO/QHS8p
0BxcgKIEuCrNotiiVqJU6ZIul3TpkTclMXS5bNj1kgiIOssSjy48hz6c
-----END CERTIFICATE-----
