Certificate:
    Data:
        Version: 3 (0x2)
        Serial Number: 268435685 (0x100000e5)
    Signature Algorithm: sha256WithRSAEncryption
        Issuer: C=DE, ST=Hessen, O=privacyidea, CN=CA001
        Validity
            Not Before: Jun  2 05:23:23 2018 GMT
            Not After : Jun  2 05:23:23 2019 GMT
        Subject: C=DE, ST=Hessen, O=privacyidea, CN=requester.localdomain
        Subject Public Key Info:
            Public Key Algorithm: rsaEncryption
                Public-Key: (2048 bit)
                Modulus:
                    00:cd:be:14:4f:fa:ce:01:3f:42:22:1b:1d:9c:af:
                    dd:92:d2:7f:db:6c:b7:3e:39:43:43:6b:13:03:f1:
                    05:f4:07:74:bc:76:69:28:0b:af:19:8e:d7:fc:e3:
                    cd:c6:58:f2:ca:7f:08:6d:53:fc:07:02:44:24:c6:
                    b4:34:4c:8c:04:fe:33:0e:40:e2:20:ba:02:73:5a:
                    f7:f5:4f:63:6e:cc:c6:b6:df:54:1d:37:39:7d:51:
                    36:26:5f:bd:dc:3f:a8:8b:6b:a2:ae:b6:9d:d6:21:
                    e7:df:41:b8:7a:28:2a:68:48:ca:a8:2d:ed:e1:e9:
                    46:5e:5a:72:6d:b4:84:38:87:91:fd:94:11:0b:28:
                    84:c6:c2:2f:2a:fb:01:f9:36:7a:09:75:d1:33:88:
                    3c:73:41:5b:c8:bf:94:89:70:a1:f0:c0:b9:2e:50:
                    53:1e:b1:17:64:69:f4:2d:81:e0:a9:0d:0e:32:e9:
                    ba:55:8a:85:f1:1b:6f:49:79:b4:7f:88:c3:0d:3e:
                    54:88:9b:3d:1f:38:8c:04:f3:ee:6a:63:2b:f5:c6:
                    db:b4:83:aa:c4:78:41:3a:7d:4b:e1:c8:3e:71:ca:
                    1b:61:59:ea:c6:c4:ca:32:5e:c9:e9:bf:12:29:e6:
                    c6:c3:63:fe:a0:55:da:7a:f1:60:98:4d:26:ed:fa:
                    70:2d
                Exponent: 65537 (0x10001)
        X509v3 extensions:
            X509v3 Key Usage: 
                Digital Signature, Key Encipherment
            X509v3 Basic Constraints: 
                CA:FALSE
            Netscape Cert Type: 
                SSL Server
            Netscape Comment: 
                OpenSSL Generated Server Certificate
            X509v3 Subject Key Identifier: 
                53:3F:ED:5D:09:07:B3:65:7B:AB:45:C9:24:5B:09:77:80:0A:96:ED
            X509v3 Authority Key Identifier: 
                keyid:F4:A7:C0:CC:91:46:AF:64:F3:91:F2:27:F8:C8:B2:6F:8A:87:32:73
                DirName:/C=DE/ST=Hessen/O=privacyidea/CN=CA001
                serial:FB:C8:EB:AC:83:CD:12:07

            X509v3 Extended Key Usage: 
                TLS Web Server Authentication
    Signature Algorithm: sha256WithRSAEncryption
         5a:ca:e2:69:53:07:b2:f3:3a:2b:28:f0:14:fc:8b:b9:3a:13:
         09:9f:12:9d:9f:53:38:77:ec:79:99:3d:a1:fc:b9:0a:06:b6:
         58:4a:92:89:28:63:34:ce:25:13:bc:49:74:78:15:fe:9d:1c:
         37:8e:98:36:dc:2c:42:1a:e8:0b:6a:59:b3:8f:af:b8:ef:b0:
         2b:bc:9e:35:94:b5:73:68:ad:d3:f9:dc:96:72:cd:80:70:ef:
         b1:06:c1:eb:22:96:43:cc:6b:42:50:dc:0a:6c:ba:f1:0c:61:
         94:0b:da:f6:61:50:23:5c:cf:b1:d4:ed:80:4c:f9:a4:6b:18:
         bb:ee:22:b1:77:e3:33:d9:f7:1e:a3:f8:54:e8:84:b0:88:b8:
         a9:7d:91:c9:a1:cb:c0:00:26:26:91:0d:33:aa:7b:5a:c4:aa:
         b0:40:2b:02:1e:85:05:e6:86:9b:53:a6:64:6d:4e:b3:ac:ea:
         23:87:a2:04:9d:a1:2c:16:dc:a8:42:c0:15:11:cc:a6:78:ab:
         43:4f:26:bf:e6:83:0c:46:9e:9d:03:b2:89:5f:e1:5c:ad:90:
         59:30:bd:9c:81:a8:80:ac:fe:5f:5b:95:af:c4:ac:f9:d7:c1:
         e2:99:e0:8c:46:c9:47:c2:2e:56:bc:12:1b:bd:30:08:b6:89:
         9e:f5:d2:41
-----BEGIN CERTIFICATE-----
MIIEJjCCAw6gAwIBAgIEEAAA5TANBgkqhkiG9w0BAQsFADBEMQswCQYDVQQGEwJE
RTEPMA0GA1UECAwGSGVzc2VuMRQwEgYDVQQKDAtwcml2YWN5aWRlYTEOMAwGA1UE
AwwFQ0EwMDEwHhcNMTgwNjAyMDUyMzIzWhcNMTkwNjAyMDUyMzIzWjBUMQswCQYD
VQQGEwJERTEPMA0GA1UECAwGSGVzc2VuMRQwEgYDVQQKDAtwcml2YWN5aWRlYTEe
MBwGA1UEAwwVcmVxdWVzdGVyLmxvY2FsZG9tYWluMIIBIjANBgkqhkiG9w0BAQEF
AAOCAQ8AMIIBCgKCAQEAzb4UT/rOAT9CIhsdnK/dktJ/22y3PjlDQ2sTA/EF9Ad0
vHZpKAuvGY7X/OPNxljyyn8IbVP8BwJEJMa0NEyMBP4zDkDiILoCc1r39U9jbszG
tt9UHTc5fVE2Jl+93D+oi2uirrad1iHn30G4eigqaEjKqC3t4elGXlpybbSEOIeR
/ZQRCyiExsIvKvsB+TZ6CXXRM4g8c0FbyL+UiXCh8MC5LlBTHrEXZGn0LYHgqQ0O
Mum6VYqF8RtvSXm0f4jDDT5UiJs9HziMBPPuamMr9cbbtIOqxHhBOn1L4cg+ccob
YVnqxsTKMl7J6b8SKebGw2P+oFXaevFgmE0m7fpwLQIDAQABo4IBDjCCAQowCwYD
VR0PBAQDAgWgMAkGA1UdEwQCMAAwEQYJYIZIAYb4QgEBBAQDAgZAMDMGCWCGSAGG
+EIBDQQmFiRPcGVuU1NMIEdlbmVyYXRlZCBTZXJ2ZXIgQ2VydGlmaWNhdGUwHQYD
VR0OBBYEFFM/7V0JB7Nle6tFySRbCXeACpbtMHQGA1UdIwRtMGuAFPSnwMyRRq9k
85HyJ/jIsm+KhzJzoUikRjBEMQswCQYDVQQGEwJERTEPMA0GA1UECAwGSGVzc2Vu
MRQwEgYDVQQKDAtwcml2YWN5aWRlYTEOMAwGA1UEAwwFQ0EwMDGCCQD7yOusg80S
BzATBgNVHSUEDDAKBggrBgEFBQcDATANBgkqhkiG9w0BAQsFAAOCAQEAWsriaVMH
svM6KyjwFPyLuToTCZ8SnZ9TOHfseZk9ofy5Cga2WEqSiShjNM4lE7xJdHgV/p0c
N46YNtwsQhroC2pZs4+vuO+wK7yeNZS1c2it0/nclnLNgHDvsQbB6yKWQ8xrQlDc
Cmy68QxhlAva9mFQI1zPsdTtgEz5pGsYu+4isXfjM9n3HqP4VOiEsIi4qX2RyaHL
wAAmJpENM6p7WsSqsEArAh6FBeaGm1OmZG1Os6zqI4eiBJ2hLBbcqELAFRHMpnir
Q08mv+aDDEaenQOyiV/hXK2QWTC9nIGogKz+X1uVr8Ss+dfB4pngjEbJR8IuVrwS
G70wCLaJnvXSQQ==
-----END CERTIFICATE-----
