Certificate:
    Data:
        Version: 3 (0x2)
        Serial Number: 268435669 (0x100000d5)
    Signature Algorithm: sha256WithRSAEncryption
        Issuer: C=DE, ST=Hessen, O=privacyidea, CN=CA001
        Validity
            Not Before: Oct 22 06:47:06 2018 GMT
            Not After : Oct 22 06:47:06 2019 GMT
        Subject: C=DE, ST=Hessen, O=privacyidea, CN=requester.localdomain
        Subject Public Key Info:
            Public Key Algorithm: rsaEncryption
                Public-Key: (2048 bit)
                Modulus:
                    00:cd:be:14:4f:fa:ce:01:3f:42:22:1b:1d:9c:af:
                    dd:92:d2:7f:db:6c:b7:3e:39:43:43:6b:13:03:f1:
                    05:f4:07:74:bc:76:69:28:0b:af:19:8e:d7:fc:e3:
                    cd:c6:58:f2:ca:7f:08:6d:53:fc:07:02:44:24:c6:
                    b4:34:4c:8c:04:fe:33:0e:40:e2:20:ba:02:73:5a:
                    f7:f5:4f:63:6e:cc:c6:b6:df:54:1d:37:39:7d:51:
                    36:26:5f:bd:dc:3f:a8:8b:6b:a2:ae:b6:9d:d6:21:
                    e7:df:41:b8:7a:28:2a:68:48:ca:a8:2d:ed:e1:e9:
                    46:5e:5a:72:6d:b4:84:38:87:91:fd:94:11:0b:28:
                    84:c6:c2:2f:2a:fb:01:f9:36:7a:09:75:d1:33:88:
                    3c:73:41:5b:c8:bf:94:89:70:a1:f0:c0:b9:2e:50:
                    53:1e:b1:17:64:69:f4:2d:81:e0:a9:0d:0e:32:e9:
                    ba:55:8a:85:f1:1b:6f:49:79:b4:7f:88:c3:0d:3e:
                    54:88:9b:3d:1f:38:8c:04:f3:ee:6a:63:2b:f5:c6:
                    db:b4:83:aa:c4:78:41:3a:7d:4b:e1:c8:3e:71:ca:
                    1b:61:59:ea:c6:c4:ca:32:5e:c9:e9:bf:12:29:e6:
                    c6:c3:63:fe:a0:55:da:7a:f1:60:98:4d:26:ed:fa:
                    70:2d
                Exponent: 65537 (0x10001)
        X509v3 extensions:
            X509v3 Key Usage: 
                Digital Signature, Key Encipherment
            X509v3 Basic Constraints: 
                CA:FALSE
            Netscape Cert Type: 
                SSL Server
            Netscape Comment: 
                OpenSSL Generated Server Certificate
            X509v3 Subject Key Identifier: 
                53:3F:ED:5D:09:07:B3:65:7B:AB:45:C9:24:5B:09:77:80:0A:96:ED
            X509v3 Authority Key Identifier: 
                keyid:F4:A7:C0:CC:91:46:AF:64:F3:91:F2:27:F8:C8:B2:6F:8A:87:32:73
                DirName:/C=DE/ST=Hessen/O=privacyidea/CN=CA001
                serial:FB:C8:EB:AC:83:CD:12:07

            X509v3 Extended Key Usage: 
                TLS Web Server Authentication
    Signature Algorithm: sha256WithRSAEncryption
         85:c6:62:8d:3e:79:24:be:2b:61:ec:c4:21:e1:8d:f4:e0:4c:
         90:5e:58:46:27:43:af:e7:11:7c:51:3e:59:4f:cb:7a:13:c7:
         09:16:45:6b:61:24:6f:a7:35:f1:d1:20:59:ac:28:86:6b:42:
         9b:c0:30:6a:50:16:fc:fc:ba:59:5a:17:31:34:05:11:8d:ed:
         9d:e9:d6:77:e3:44:59:64:3d:60:5c:64:b5:71:97:a8:7c:3a:
         68:15:a8:ba:a5:bf:9c:0c:95:6c:58:9c:f3:50:b6:e5:32:ea:
         27:09:b3:f7:c4:cc:7d:c5:e3:1f:13:d8:28:95:e5:a8:b0:58:
         c7:5e:64:e6:19:59:c1:4d:11:d9:a0:c0:ab:96:b2:73:89:e5:
         26:54:d8:f0:da:c2:ee:6b:25:af:97:49:a3:44:fd:4a:a5:f0:
         b1:26:47:78:bb:28:91:e2:39:00:79:a7:fd:64:ef:39:4e:98:
         0f:6a:ed:01:48:31:45:93:10:cc:64:0b:8b:80:2b:e8:7e:0a:
         e4:cc:af:3d:ce:04:65:81:3a:5f:82:15:64:ad:5b:52:34:65:
         b0:8a:6e:56:b6:a1:9c:d9:c7:b6:b2:28:b5:41:4d:a6:47:37:
         7d:c7:48:01:25:24:ad:1b:e4:89:28:49:cc:31:c4:39:c2:c7:
         e3:56:04:de
-----BEGIN CERTIFICATE-----
MIIEJjCCAw6gAwIBAgIEEAAA1TANBgkqhkiG9w0BAQsFADBEMQswCQYDVQQGEwJE
RTEPMA0GA1UECAwGSGVzc2VuMRQwEgYDVQQKDAtwcml2YWN5aWRlYTEOMAwGA1UE
AwwFQ0EwMDEwHhcNMTgxMDIyMDY0NzA2WhcNMTkxMDIyMDY0NzA2WjBUMQswCQYD
VQQGEwJERTEPMA0GA1UECAwGSGVzc2VuMRQwEgYDVQQKDAtwcml2YWN5aWRlYTEe
MBwGA1UEAwwVcmVxdWVzdGVyLmxvY2FsZG9tYWluMIIBIjANBgkqhkiG9w0BAQEF
AAOCAQ8AMIIBCgKCAQEAzb4UT/rOAT9CIhsdnK/dktJ/22y3PjlDQ2sTA/EF9Ad0
vHZpKAuvGY7X/OPNxljyyn8IbVP8BwJEJMa0NEyMBP4zDkDiILoCc1r39U9jbszG
tt9UHTc5fVE2Jl+93D+oi2uirrad1iHn30G4eigqaEjKqC3t4elGXlpybbSEOIeR
/ZQRCyiExsIvKvsB+TZ6CXXRM4g8c0FbyL+UiXCh8MC5LlBTHrEXZGn0LYHgqQ0O
Mum6VYqF8RtvSXm0f4jDDT5UiJs9HziMBPPuamMr9cbbtIOqxHhBOn1L4cg+ccob
YVnqxsTKMl7J6b8SKebGw2P+oFXaevFgmE0m7fpwLQIDAQABo4IBDjCCAQowCwYD
VR0PBAQDAgWgMAkGA1UdEwQCMAAwEQYJYIZIAYb4QgEBBAQDAgZAMDMGCWCGSAGG
+EIBDQQmFiRPcGVuU1NMIEdlbmVyYXRlZCBTZXJ2ZXIgQ2VydGlmaWNhdGUwHQYD
VR0OBBYEFFM/7V0JB7Nle6tFySRbCXeACpbtMHQGA1UdIwRtMGuAFPSnwMyRRq9k
85HyJ/jIsm+KhzJzoUikRjBEMQswCQYDVQQGEwJERTEPMA0GA1UECAwGSGVzc2Vu
MRQwEgYDVQQKDAtwcml2YWN5aWRlYTEOMAwGA1UEAwwFQ0EwMDGCCQD7yOusg80S
BzATBgNVHSUEDDAKBggrBgEFBQcDATANBgkqhkiG9w0BAQsFAAOCAQEAhcZijT55
JL4rYezEIeGN9OBMkF5YRidDr+cRfFE+WU/LehPHCRZFa2Ekb6c18dEgWawohmtC
m8AwalAW/Py6WVoXMTQFEY3tnenWd+NEWWQ9YFxktXGXqHw6aBWouqW/nAyVbFic
81C25TLqJwmz98TMfcXjHxPYKJXlqLBYx15k5hlZwU0R2aDAq5ayc4nlJlTY8NrC
7mslr5dJo0T9SqXwsSZHeLsokeI5AHmn/WTvOU6YD2rtAUgxRZMQzGQLi4Ar6H4K
5MyvPc4EZYE6X4IVZK1bUjRlsIpuVrahnNnHtrIotUFNpkc3fcdIASUkrRvkiShJ
zDHEOcLH41YE3g==
-----END CERTIFICATE-----
